(dp0
S'best_models/GRU15_seed1probe_seed10_500.h5'
p1
(dp2
S'loss'
p3
ccollections
OrderedDict
p4
((lp5
(lp6
S'L9_left'
p7
acnumpy.core.multiarray
scalar
p8
(cnumpy
dtype
p9
(S'f8'
p10
I0
I1
tp11
Rp12
(I3
S'<'
p13
NNNI-1
I-1
I0
tp14
bS'\xa3\xb7em\x19\x19D@'
p15
tp16
Rp17
aa(lp18
S'L9_right'
p19
ag8
(g12
S'\xaa\xcc\xa7a\x01\xb3h@'
p20
tp21
Rp22
aa(lp23
S'L1'
p24
ag8
(g12
S'\\\x8f\xc2u\xfb\xb41@'
p25
tp26
Rp27
aa(lp28
S'L2'
p29
ag8
(g12
S'B`\xe5\xd0\xde_*@'
p30
tp31
Rp32
aa(lp33
S'L3'
p34
ag8
(g12
S'\x05\xc8\xbd\xe6\xf8k8@'
p35
tp36
Rp37
aa(lp38
S'L4'
p39
ag8
(g12
S'iJ\xc5\xc9\x16\nA@'
p40
tp41
Rp42
aa(lp43
S'L5'
p44
ag8
(g12
S'\xce\x88\xd2\xbe\xcbvE@'
p45
tp46
Rp47
aa(lp48
S'L6'
p49
ag8
(g12
S'\xf0\x85\xc9\xb4\xb0\xf2I@'
p50
tp51
Rp52
aa(lp53
S'L7'
p54
ag8
(g12
S'K\xc8\x07]\xf1\xbcN@'
p55
tp56
Rp57
aa(lp58
S'L8'
p59
ag8
(g12
S'\xb3V\xc7\xa4z\x9eQ@'
p60
tp61
Rp62
aa(lp63
S'L9'
p64
ag8
(g12
S'\xe8j+V\x8c\xdaS@'
p65
tp66
Rp67
aatp68
Rp69
sS'intermediate_locally_binary_accuracy'
p70
g4
((lp71
(lp72
g7
ag8
(g12
S'9jr^\xd1\xe1\xc4?'
p73
tp74
Rp75
aa(lp76
g19
ag8
(g12
S'\x99OCa\xc76\xb8?'
p77
tp78
Rp79
aa(lp80
g24
ag8
(g12
S')\\\x8f"\x85\xeb\xc1?'
p81
tp82
Rp83
aa(lp84
g29
ag8
(g12
S'\x8bl\xe7{&\xc2\xd6?'
p85
tp86
Rp87
aa(lp88
g34
ag8
(g12
S'\xa2\xfe\x8d\xb0\xd4\xb4\xd0?'
p89
tp90
Rp91
aa(lp92
g39
ag8
(g12
S'\x17\x92\xa64\xd27\xcb?'
p93
tp94
Rp95
aa(lp96
g44
ag8
(g12
S'\x12\xa5\xbd\xe1h\x7f\xc8?'
p97
tp98
Rp99
aa(lp100
g49
ag8
(g12
S'Y\x868\x96\xe6\xaa\xc6?'
p101
tp102
Rp103
aa(lp104
g54
ag8
(g12
S'^\xdftx\xc7<\xc5?'
p105
tp106
Rp107
aa(lp108
g59
ag8
(g12
S'A\x82\xe2\xc7\xf8\xfa\xc3?'
p109
tp110
Rp111
aa(lp112
g64
ag8
(g12
S'"GMNJ\xc8\xc2?'
p113
tp114
Rp115
aatp116
Rp117
sS'intermediate_recursively_binary_accuracy'
p118
g4
((lp119
(lp120
g7
ag8
(g12
S'\xca2\xc41\xb4%\xbd?'
p121
tp122
Rp123
aa(lp124
g19
ag8
(g12
S'\xfe\xafM}\r\xac\xb5?'
p125
tp126
Rp127
aa(lp128
g24
ag8
(g12
S'333\xf3Q\xb8\xbe?'
p129
tp130
Rp131
aa(lp132
g29
ag8
(g12
S'#\xdb\xf9\x1e\x8eu\xd1?'
p133
tp134
Rp135
aa(lp136
g34
ag8
(g12
S'\x06\x81\x95\xc3\xa3?\xc7?'
p137
tp138
Rp139
aa(lp140
g39
ag8
(g12
S'K~\xb1\x84\xd5\x1a\xc3?'
p141
tp142
Rp143
aa(lp144
g44
ag8
(g12
S'\xd7\x12\xf2\xa1K=\xc0?'
p145
tp146
Rp147
aa(lp148
g49
ag8
(g12
S'\x18&S\x05F\xb2\xbc?'
p149
tp150
Rp151
aa(lp152
g54
ag8
(g12
S'g\x8b\x91\x12\xfc\\\xba?'
p153
tp154
Rp155
aa(lp156
g59
ag8
(g12
S'\xd1\xfd\xaf\xcd\xc7_\xb8?'
p157
tp158
Rp159
aa(lp160
g64
ag8
(g12
S'u\x93\x18\xe4U\xf3\xb6?'
p161
tp162
Rp163
aatp164
Rp165
sS'subtracting_binary_accuracy'
p166
g4
((lp167
(lp168
g7
ag8
(g12
S'\xd0i\x03\x1d\xc5\x82\xef?'
p169
tp170
Rp171
aa(lp172
g19
ag8
(g12
S'z\xa2\xfe-\xa2\x1b\xe7?'
p173
tp174
Rp175
aa(lp176
g24
ag8
(g12
S'\x00\x00\x00\x00\x00\x00\xf0?'
p177
tp178
Rp179
aa(lp180
g29
ag8
(g12
S'\xbaI\x0c\xc2\xec\x9e\xec?'
p181
tp182
Rp183
aa(lp184
g34
ag8
(g12
S'\xb4\x0f\x9f\xe1\x18\xc8\xee?'
p185
tp186
Rp187
aa(lp188
g39
ag8
(g12
S'\xd7\xa3p=\x92\xbd\xee?'
p189
tp190
Rp191
aa(lp192
g44
ag8
(g12
S'\t\x8a\x1f\xc3L\x8e\xee?'
p193
tp194
Rp195
aa(lp196
g49
ag8
(g12
S'\xfc\xa9\xf1r\xdf@\xee?'
p197
tp198
Rp199
aa(lp200
g54
ag8
(g12
S"/'{~\t\xef\xed?"
p201
tp202
Rp203
aa(lp204
g59
ag8
(g12
S'\xe7\x1d\xa7\x88W\xa0\xed?'
p205
tp206
Rp207
aa(lp208
g64
ag8
(g12
S'\xa4\x95h6\x08E\xed?'
p209
tp210
Rp211
aatp212
Rp213
sS'intermediate_recursively_loss'
p214
g4
((lp215
(lp216
g7
ag8
(g12
S'\xbb\x93b\xdaV\xb7@@'
p217
tp218
Rp219
aa(lp220
g19
ag8
(g12
S'j\x97I\x87\x9c(X@'
p221
tp222
Rp223
aa(lp224
g24
ag8
(g12
S'\xc3\xf5(\xdc\xfa\x11\x11@'
p225
tp226
Rp227
aa(lp228
g29
ag8
(g12
S'\x12\x83\xc0\x8a\x0f\x93$@'
p229
tp230
Rp231
aa(lp232
g34
ag8
(g12
S'D\x8bl\xe7T=4@'
p233
tp234
Rp235
aa(lp236
g39
ag8
(g12
S'\xda\x87\xcf\x90\xee\xb5<@'
p237
tp238
Rp239
aa(lp240
g44
ag8
(g12
S'\xb8@\x82\x82v\x16B@'
p241
tp242
Rp243
aa(lp244
g49
ag8
(g12
S'\xb2\x9d\xefW\xcb\xbaE@'
p245
tp246
Rp247
aa(lp248
g54
ag8
(g12
S'\xe0\xbe\x0e\\m~I@'
p249
tp250
Rp251
aa(lp252
g59
ag8
(g12
S's\xb2\xe7\x05\xa0\xd3L@'
p253
tp254
Rp255
aa(lp256
g64
ag8
(g12
S'\x8d(\xed\ru\xd0O@'
p257
tp258
Rp259
aatp260
Rp261
sS'intermediate_recursively_mean_squared_error'
p262
g4
((lp263
(lp264
g7
ag8
(g12
S'\xbb\x93b\xdaV\xb7@@'
p265
tp266
Rp267
aa(lp268
g19
ag8
(g12
S'j\x97I\x87\x9c(X@'
p269
tp270
Rp271
aa(lp272
g24
ag8
(g12
S'\xc3\xf5(\xdc\xfa\x11\x11@'
p273
tp274
Rp275
aa(lp276
g29
ag8
(g12
S'\x12\x83\xc0\x8a\x0f\x93$@'
p277
tp278
Rp279
aa(lp280
g34
ag8
(g12
S'D\x8bl\xe7T=4@'
p281
tp282
Rp283
aa(lp284
g39
ag8
(g12
S'\xda\x87\xcf\x90\xee\xb5<@'
p285
tp286
Rp287
aa(lp288
g44
ag8
(g12
S'\xb8@\x82\x82v\x16B@'
p289
tp290
Rp291
aa(lp292
g49
ag8
(g12
S'\xb2\x9d\xefW\xcb\xbaE@'
p293
tp294
Rp295
aa(lp296
g54
ag8
(g12
S'\xe0\xbe\x0e\\m~I@'
p297
tp298
Rp299
aa(lp300
g59
ag8
(g12
S's\xb2\xe7\x05\xa0\xd3L@'
p301
tp302
Rp303
aa(lp304
g64
ag8
(g12
S'\x8d(\xed\ru\xd0O@'
p305
tp306
Rp307
aatp308
Rp309
sS'intermediate_locally_mean_absolute_error'
p310
g4
((lp311
(lp312
g7
ag8
(g12
S'\x1f>\xc3\xae\xd3)\x00@'
p313
tp314
Rp315
aa(lp316
g19
ag8
(g12
S'G\xb9!3\x8el\x1b@'
p317
tp318
Rp319
aa(lp320
g24
ag8
(g12
S'=\n\xd7\xa3T#\t@'
p321
tp322
Rp323
aa(lp324
g29
ag8
(g12
S'5^\xba\xa9\xfcC\xf3?'
p325
tp326
Rp327
aa(lp328
g34
ag8
(g12
S'\xc4g\xd8\xf5\x93\xc8\xf8?'
p329
tp330
Rp331
aa(lp332
g39
ag8
(g12
S'bW\x80<\xaa\x00\xfc?'
p333
tp334
Rp335
aa(lp336
g44
ag8
(g12
S'\x04\xe7\x8cH\x8f\xd3\xfe?'
p337
tp338
Rp339
aa(lp340
g49
ag8
(g12
S'\x1b\r\xe0\x9d\r\xd8\x00@'
p341
tp342
Rp343
aa(lp344
g54
ag8
(g12
S'Uz\x80as_\x02@'
p345
tp346
Rp347
aa(lp348
g59
ag8
(g12
S'>yX(k\xf7\x03@'
p349
tp350
Rp351
aa(lp352
g64
ag8
(g12
S'i\x00o\xc1\x0f\xba\x05@'
p353
tp354
Rp355
aatp356
Rp357
sS'intermediate_recursively_mean_absolute_error'
p358
g4
((lp359
(lp360
g7
ag8
(g12
S'0q\xd1\x16\x94$\x10@'
p361
tp362
Rp363
aa(lp364
g19
ag8
(g12
S'\x96h\xb6X\xfb\xc6\x1b@'
p365
tp366
Rp367
aa(lp368
g24
ag8
(g12
S'fff&~\xab\xfd?'
p369
tp370
Rp371
aa(lp372
g29
ag8
(g12
S'\x98n\x12cP-\x02@'
p373
tp374
Rp375
aa(lp376
g34
ag8
(g12
S'\x15g\x1f\xbe\x0b8\t@'
p377
tp378
Rp379
aa(lp380
g39
ag8
(g12
S'sh\x91m \xf3\r@'
p381
tp382
Rp383
aa(lp384
g44
ag8
(g12
S'\xb57\xf8\x82\x8b\x02\x11@'
p385
tp386
Rp387
aa(lp388
g49
ag8
(g12
S'\xd74\xef\xa83\xa1\x12@'
p389
tp390
Rp391
aa(lp392
g54
ag8
(g12
S'\x0b\xb5\xa6\xd9\xb7.\x14@'
p393
tp394
Rp395
aa(lp396
g59
ag8
(g12
S'\xd1\xfd\xafm\xa4\x83\x15@'
p397
tp398
Rp399
aa(lp400
g64
ag8
(g12
S'\x1e\x16jM\xcd\x9d\x16@'
p401
tp402
Rp403
aatp404
Rp405
sS'intermediate_locally_loss'
p406
g4
((lp407
(lp408
g7
ag8
(g12
S'tF\x94\x96\xfa\xbf\x1a@'
p409
tp410
Rp411
aa(lp412
g19
ag8
(g12
S'\xcaT\xc1\x08\xbe\x0fY@'
p413
tp414
Rp415
aa(lp416
g24
ag8
(g12
S'\x8f\xc2\xf5\xa8;\xdb*@'
p417
tp418
Rp419
aa(lp420
g29
ag8
(g12
S'\xac\x1cZ\xc4\xd4\xf4\x02@'
p421
tp422
Rp423
aa(lp424
g34
ag8
(g12
S'\xcd\x85\xa4\xc9!(\x10@'
p425
tp426
Rp427
aa(lp428
g39
ag8
(g12
S'\x97\xb5:F\xb5\x00\x15@'
p429
tp430
Rp431
aa(lp432
g44
ag8
(g12
S'\xe3\xc7\x98\x1bT\x82\x1a@'
p433
tp434
Rp435
aa(lp436
g49
ag8
(g12
S'\x93\x18\x04\x16r\x95 @'
p437
tp438
Rp439
aa(lp440
g54
ag8
(g12
S'\xd9=y\x98W\xa4$@'
p441
tp442
Rp443
aa(lp444
g59
ag8
(g12
S':m\xa0\x13\x98C)@'
p445
tp446
Rp447
aa(lp448
g64
ag8
(g12
S'\x0bF%u6#/@'
p449
tp450
Rp451
aatp452
Rp453
sS'subtracting_loss'
p454
g4
((lp455
(lp456
g7
ag8
(g12
S'\xe3\xa5\x9b$~\x86\xb3?'
p457
tp458
Rp459
aa(lp460
g19
ag8
(g12
S'H\xbcOH\x19\xd4\xe6?'
p461
tp462
Rp463
aa(lp464
g24
ag8
(g12
S'\\\x8f\xc25v\xf7\x86?'
p465
tp466
Rp467
aa(lp468
g29
ag8
(g12
S'\xcb\xa1E\x16\xa1\xf9\xe0?'
p469
tp470
Rp471
aa(lp472
g34
ag8
(g12
S'\x9d6\xd0\xc9\xc5M\xc2?'
p473
tp474
Rp475
aa(lp476
g39
ag8
(g12
S'\x7fj\xbc\x14\xb1\x11\xbe?'
p477
tp478
Rp479
aa(lp480
g44
ag8
(g12
S'\xdd$\x06Q\xb8\n\xc0?'
p481
tp482
Rp483
aa(lp484
g49
ag8
(g12
S'\x8e\x06\xf0v\xd7\x88\xc2?'
p485
tp486
Rp487
aa(lp488
g54
ag8
(g12
S')7d\x16\x1bn\xc5?'
p489
tp490
Rp491
aa(lp492
g59
ag8
(g12
S'\xfd\xac\x1f\x08>o\xc8?'
p493
tp494
Rp495
aa(lp496
g64
ag8
(g12
S'\x19s\xd7\x92\x00\xd6\xcb?'
p497
tp498
Rp499
aatp500
Rp501
sS'intermediate_locally_mean_squared_error'
p502
g4
((lp503
(lp504
g7
ag8
(g12
S'tF\x94\x96\xfa\xbf\x1a@'
p505
tp506
Rp507
aa(lp508
g19
ag8
(g12
S'\xcaT\xc1\x08\xbe\x0fY@'
p509
tp510
Rp511
aa(lp512
g24
ag8
(g12
S'\x8f\xc2\xf5\xa8;\xdb*@'
p513
tp514
Rp515
aa(lp516
g29
ag8
(g12
S'\xac\x1cZ\xc4\xd4\xf4\x02@'
p517
tp518
Rp519
aa(lp520
g34
ag8
(g12
S'\xcd\x85\xa4\xc9!(\x10@'
p521
tp522
Rp523
aa(lp524
g39
ag8
(g12
S'\x97\xb5:F\xb5\x00\x15@'
p525
tp526
Rp527
aa(lp528
g44
ag8
(g12
S'\xe3\xc7\x98\x1bT\x82\x1a@'
p529
tp530
Rp531
aa(lp532
g49
ag8
(g12
S'\x93\x18\x04\x16r\x95 @'
p533
tp534
Rp535
aa(lp536
g54
ag8
(g12
S'\xd9=y\x98W\xa4$@'
p537
tp538
Rp539
aa(lp540
g59
ag8
(g12
S':m\xa0\x13\x98C)@'
p541
tp542
Rp543
aa(lp544
g64
ag8
(g12
S'\x0bF%u6#/@'
p545
tp546
Rp547
aatp548
Rp549
ssS'best_models/GRU15_seed0probe_seed10_500.h5'
p550
(dp551
g3
g4
((lp552
(lp553
g7
ag8
(g12
S'\xb1\xe4\x17k\xf3\xd9L@'
p554
tp555
Rp556
aa(lp557
g19
ag8
(g12
S'&\xbfX\xf2\n\x07e@'
p558
tp559
Rp560
aa(lp561
g24
ag8
(g12
S'q=\nW\xd6\xd2#@'
p562
tp563
Rp564
aa(lp565
g29
ag8
(g12
S'b\x10X9\xd9\xd1(@'
p566
tp567
Rp568
aa(lp569
g34
ag8
(g12
S'\x10X9T|\x847@'
p570
tp571
Rp572
aa(lp573
g39
ag8
(g12
S'\x14\xf5o\x84\xb5PA@'
p574
tp575
Rp576
aa(lp577
g44
ag8
(g12
S'\x11\xc7\xba\xd8\xa1\xfcE@'
p578
tp579
Rp580
aa(lp581
g49
ag8
(g12
S'\xb1\xbf\xec\xbe\xb7\xc0J@'
p582
tp583
Rp584
aa(lp585
g54
ag8
(g12
S'\xe6d\xcf\x8b]\x86O@'
p586
tp587
Rp588
aa(lp589
g59
ag8
(g12
S'q\xac\x8b\x9b\x8c\x1aR@'
p590
tp591
Rp592
aa(lp593
g64
ag8
(g12
S'\x1d8g\x84\x18IT@'
p594
tp595
Rp596
aatp597
Rp598
sS'intermediate_locally_binary_accuracy'
p599
g4
((lp600
(lp601
g7
ag8
(g12
S'un\xed\xb7\x83\xcc\xb3?'
p602
tp603
Rp604
aa(lp605
g19
ag8
(g12
S'8\xb1\x9a!\x92\xd8\xbd?'
p606
tp607
Rp608
aa(lp609
g24
ag8
(g12
S'\xe1z\x14\xaeG\xe1\xda?'
p610
tp611
Rp612
aa(lp613
g29
ag8
(g12
S'\xf6(\\/\x18\x95\xb4?'
p614
tp615
Rp616
aa(lp617
g34
ag8
(g12
S'\x1b/\xdd\x84\x9f\x87\xcc?'
p618
tp619
Rp620
aa(lp621
g39
ag8
(g12
S'z[\xd6*\x8c\x99\xcc?'
p622
tp623
Rp624
aa(lp625
g44
ag8
(g12
S'6<\xbd\xf2\xff\x01\xcd?'
p626
tp627
Rp628
aa(lp629
g49
ag8
(g12
S'\xb8\xaf\x03\xc7\xeeV\xcb?'
p630
tp631
Rp632
aa(lp633
g54
ag8
(g12
S'\t\xd4u[bR\xc9?'
p634
tp635
Rp636
aa(lp637
g59
ag8
(g12
S'\x19\x04V.dw\xc7?'
p638
tp639
Rp640
aa(lp641
g64
ag8
(g12
S'\x19s\xd7\xb2\xdb\xa1\xc5?'
p642
tp643
Rp644
aatp645
Rp646
sS'intermediate_recursively_binary_accuracy'
p647
g4
((lp648
(lp649
g7
ag8
(g12
S'|\xab\x88m\x83n\xb3?'
p650
tp651
Rp652
aa(lp653
g19
ag8
(g12
S'\xd9\x84\xa1;\x99\xe1\xbb?'
p654
tp655
Rp656
aa(lp657
g24
ag8
(g12
S'\xb8\x1e\x85\xebQ\xb8\xae?'
p658
tp659
Rp660
aa(lp661
g29
ag8
(g12
S'\x1dZd\xfb\x90~\xdb?'
p662
tp663
Rp664
aa(lp665
g34
ag8
(g12
S'\x9c\xc4 0\xa6_\xcd?'
p666
tp667
Rp668
aa(lp669
g39
ag8
(g12
S'l.$-\xe1\xc0\xc5?'
p670
tp671
Rp672
aa(lp673
g44
ag8
(g12
S'G\x03x+\xf8\xc4\xc1?'
p674
tp675
Rp676
aa(lp677
g49
ag8
(g12
S'g\xd5\xe7j\x7f\xbf\xbe?'
p678
tp679
Rp680
aa(lp681
g54
ag8
(g12
S'\xa2E\xb6\xb3|J\xbb?'
p682
tp683
Rp684
aa(lp685
g59
ag8
(g12
S'\xdd\xb5\x84|\x05\x15\xb9?'
p686
tp687
Rp688
aa(lp689
g64
ag8
(g12
S'\xc19#\xaa\x90i\xb7?'
p690
tp691
Rp692
aatp693
Rp694
sS'subtracting_binary_accuracy'
p695
g4
((lp696
(lp697
g7
ag8
(g12
S'\x9e9\xfe\x1e?s\xef?'
p698
tp699
Rp700
aa(lp701
g19
ag8
(g12
S'\xbak\ty\xc5:\xe9?'
p702
tp703
Rp704
aa(lp705
g24
ag8
(g12
S'\x00\x00\x00\x00\x00\x00\xf0?'
p706
tp707
Rp708
aa(lp709
g29
ag8
(g12
S'\xaeG\xe1\xba\xfc\x87\xec?'
p710
tp711
Rp712
aa(lp713
g34
ag8
(g12
S']H\x9a\x12h\x9c\xee?'
p714
tp715
Rp716
aa(lp717
g39
ag8
(g12
S'\x1dZd\xfbI\xdd\xee?'
p718
tp719
Rp720
aa(lp721
g44
ag8
(g12
S'W\xec/[2\xd6\xee?'
p722
tp723
Rp724
aa(lp725
g49
ag8
(g12
S'\xed\r\xbep\x10\xb1\xee?'
p726
tp727
Rp728
aa(lp729
g54
ag8
(g12
S'\x17\xdc\xfc\xac\xb6u\xee?'
p730
tp731
Rp732
aa(lp733
g59
ag8
(g12
S'#\x00%\x8b\x08/\xee?'
p734
tp735
Rp736
aa(lp737
g64
ag8
(g12
S'\xac\x8b\xdbhM\xe9\xed?'
p738
tp739
Rp740
aatp741
Rp742
sS'intermediate_recursively_loss'
p743
g4
((lp744
(lp745
g7
ag8
(g12
S'\xd4P\x90\xe5\xcc\xd2E@'
p746
tp747
Rp748
aa(lp749
g19
ag8
(g12
S'W\x80\xdcK\xe7aW@'
p750
tp751
Rp752
aa(lp753
g24
ag8
(g12
S'\\\x8f\xc2\x95\x8fs\x17@'
p754
tp755
Rp756
aa(lp757
g29
ag8
(g12
S'\x9c\xc4 p\xdb\xb4#@'
p758
tp759
Rp760
aa(lp761
g34
ag8
(g12
S'(\xa3\xb7%\xcb\x814@'
p762
tp763
Rp764
aa(lp765
g39
ag8
(g12
S'\xe4^s\xc1m\x90>@'
p766
tp767
Rp768
aa(lp769
g44
ag8
(g12
S'\xb1\xe1\xe9\x95?^C@'
p770
tp771
Rp772
aa(lp773
g49
ag8
(g12
S'\x98n\x12\x93u}G@'
p774
tp775
Rp776
aa(lp777
g54
ag8
(g12
S'u\x02\x9aHveK@'
p778
tp779
Rp780
aa(lp781
g59
ag8
(g12
S'\x0eR\xddI\x86\xfaN@'
p782
tp783
Rp784
aa(lp785
g64
ag8
(g12
S'_\x07\xce\x19\xe9\x16Q@'
p786
tp787
Rp788
aatp789
Rp790
sS'intermediate_recursively_mean_squared_error'
p791
g4
((lp792
(lp793
g7
ag8
(g12
S'\xd4P\x90\xe5\xcc\xd2E@'
p794
tp795
Rp796
aa(lp797
g19
ag8
(g12
S'W\x80\xdcK\xe7aW@'
p798
tp799
Rp800
aa(lp801
g24
ag8
(g12
S'\\\x8f\xc2\x95\x8fs\x17@'
p802
tp803
Rp804
aa(lp805
g29
ag8
(g12
S'\x9c\xc4 p\xdb\xb4#@'
p806
tp807
Rp808
aa(lp809
g34
ag8
(g12
S'(\xa3\xb7%\xcb\x814@'
p810
tp811
Rp812
aa(lp813
g39
ag8
(g12
S'\xe4^s\xc1m\x90>@'
p814
tp815
Rp816
aa(lp817
g44
ag8
(g12
S'\xb1\xe1\xe9\x95?^C@'
p818
tp819
Rp820
aa(lp821
g49
ag8
(g12
S'\x98n\x12\x93u}G@'
p822
tp823
Rp824
aa(lp825
g54
ag8
(g12
S'u\x02\x9aHveK@'
p826
tp827
Rp828
aa(lp829
g59
ag8
(g12
S'\x0eR\xddI\x86\xfaN@'
p830
tp831
Rp832
aa(lp833
g64
ag8
(g12
S'_\x07\xce\x19\xe9\x16Q@'
p834
tp835
Rp836
aatp837
Rp838
sS'intermediate_locally_mean_absolute_error'
p839
g4
((lp840
(lp841
g7
ag8
(g12
S'0O\xd4\x9f\x96\xf5\x08@'
p842
tp843
Rp844
aa(lp845
g19
ag8
(g12
S'\xddk.\x04W9\x15@'
p846
tp847
Rp848
aa(lp849
g24
ag8
(g12
S'\xb8\x1e\x85\x8b\x87\xe3\xf4?'
p850
tp851
Rp852
aa(lp853
g29
ag8
(g12
S'\xdfO\x8dW]V\xf4?'
p854
tp855
Rp856
aa(lp857
g34
ag8
(g12
S'\x03\x9d6PD#\xf3?'
p858
tp859
Rp860
aa(lp861
g39
ag8
(g12
S'\x83\xc0\xcaA\xa8Q\xf5?'
p862
tp863
Rp864
aa(lp865
g44
ag8
(g12
S'\x02\x9a\x08\x9b\xa7\xcf\xf7?'
p866
tp867
Rp868
aa(lp869
g49
ag8
(g12
S'\x0eO\xaf\x94\xfd\x98\xfa?'
p870
tp871
Rp872
aa(lp873
g54
ag8
(g12
S'\x13<\x98g\x0b\xae\xfd?'
p874
tp875
Rp876
aa(lp877
g59
ag8
(g12
S'\x95\xaf\xde\xdb<\x89\x00@'
p878
tp879
Rp880
aa(lp881
g64
ag8
(g12
S'A\xa7\r\x94\xe9.\x02@'
p882
tp883
Rp884
aatp885
Rp886
sS'intermediate_recursively_mean_absolute_error'
p887
g4
((lp888
(lp889
g7
ag8
(g12
S'L\x81\xdfy\xe5\xd8\x13@'
p890
tp891
Rp892
aa(lp893
g19
ag8
(g12
S'\xe0\x99\xe3/\xac\xae\x1a@'
p894
tp895
Rp896
aa(lp897
g24
ag8
(g12
S'\xb8\x1e\x85+\x0bI\x00@'
p898
tp899
Rp900
aa(lp901
g29
ag8
(g12
S'\x81\x95C\xcb+\xab\x00@'
p902
tp903
Rp904
aa(lp905
g34
ag8
(g12
S'uL\xf0\x80E\n\t@'
p906
tp907
Rp908
aa(lp909
g39
ag8
(g12
S'\xc3\xae\x0091n\x0e@'
p910
tp911
Rp912
aa(lp913
g44
ag8
(g12
S'B`\xe5\xd0\x19H\x11@'
p914
tp915
Rp916
aa(lp917
g49
ag8
(g12
S'\x82sF\xe4\x1b\x16\x13@'
p918
tp919
Rp920
aa(lp921
g54
ag8
(g12
S'B\x19\xbd\xcd\x03\xaa\x14@'
p922
tp923
Rp924
aa(lp925
g59
ag8
(g12
S'\xf8\x9d9\xfe\xa5\r\x16@'
p926
tp927
Rp928
aa(lp929
g64
ag8
(g12
S'\xd2J4\x1b\xc83\x17@'
p930
tp931
Rp932
aatp933
Rp934
sS'intermediate_locally_loss'
p935
g4
((lp936
(lp937
g7
ag8
(g12
S'\xc4\xb1.n<\xeb+@'
p938
tp939
Rp940
aa(lp941
g19
ag8
(g12
S'\xa85\xcd\x1byxR@'
p942
tp943
Rp944
aa(lp945
g24
ag8
(g12
S'\xaeG\xe1\xbaH\xd2\x0f@'
p946
tp947
Rp948
aa(lp949
g29
ag8
(g12
S'\\\x8f\xc25\xd6>\x01@'
p950
tp951
Rp952
aa(lp953
g34
ag8
(g12
S'\xea\xdf\x08\x85"\xdc\x06@'
p954
tp955
Rp956
aa(lp957
g39
ag8
(g12
S';\xdfOMY~\x0f@'
p958
tp959
Rp960
aa(lp961
g44
ag8
(g12
S'\xb8\x1e\x85\xab\x8cl\x14@'
p962
tp963
Rp964
aa(lp965
g49
ag8
(g12
S'\x85|\xd0\xf3\x00\x89\x19@'
p966
tp967
Rp968
aa(lp969
g54
ag8
(g12
S'\x0fU\x0b\x9fA1 @'
p970
tp971
Rp972
aa(lp973
g59
ag8
(g12
S'\xf2\xf7xNz\x8c$@'
p974
tp975
Rp976
aa(lp977
g64
ag8
(g12
S'}\xae\xb6\xe2"\')@'
p978
tp979
Rp980
aatp981
Rp982
sS'subtracting_loss'
p983
g4
((lp984
(lp985
g7
ag8
(g12
S'7\xd0i\xe3\xd3\xae\xb8?'
p986
tp987
Rp988
aa(lp989
g19
ag8
(g12
S'v\xbbq\xa5\xbe\xda\xe9?'
p990
tp991
Rp992
aa(lp993
g24
ag8
(g12
S'\xd7\xa3p\xdd2>\xb2?'
p994
tp995
Rp996
aa(lp997
g29
ag8
(g12
S'\xbaI\x0c\x02\x07\xa9\xd9?'
p998
tp999
Rp1000
aa(lp1001
g34
ag8
(g12
S'\xc0\x11\xca\xa8n\x96\xc3?'
p1002
tp1003
Rp1004
aa(lp1005
g39
ag8
(g12
S'\xfc\xa9\xf1R\x0e\x99\xc0?'
p1006
tp1007
Rp1008
aa(lp1009
g44
ag8
(g12
S'\xd5x\xe9\xe6\xad\xd0\xc0?'
p1010
tp1011
Rp1012
aa(lp1013
g49
ag8
(g12
S'\xa9\x13\xd0\x84\r"\xc2?'
p1014
tp1015
Rp1016
aa(lp1017
g54
ag8
(g12
S'\x15\xf8\x9d9\xdb\x96\xc4?'
p1018
tp1019
Rp1020
aa(lp1021
g59
ag8
(g12
S'\x13\x86\xee\xdfYt\xc7?'
p1022
tp1023
Rp1024
aa(lp1025
g64
ag8
(g12
S'\x0cISJ\x1d\x96\xca?'
p1026
tp1027
Rp1028
aatp1029
Rp1030
sS'intermediate_locally_mean_squared_error'
p1031
g4
((lp1032
(lp1033
g7
ag8
(g12
S'\xc4\xb1.n<\xeb+@'
p1034
tp1035
Rp1036
aa(lp1037
g19
ag8
(g12
S'\xa85\xcd\x1byxR@'
p1038
tp1039
Rp1040
aa(lp1041
g24
ag8
(g12
S'\xaeG\xe1\xbaH\xd2\x0f@'
p1042
tp1043
Rp1044
aa(lp1045
g29
ag8
(g12
S'\\\x8f\xc25\xd6>\x01@'
p1046
tp1047
Rp1048
aa(lp1049
g34
ag8
(g12
S'\xea\xdf\x08\x85"\xdc\x06@'
p1050
tp1051
Rp1052
aa(lp1053
g39
ag8
(g12
S';\xdfOMY~\x0f@'
p1054
tp1055
Rp1056
aa(lp1057
g44
ag8
(g12
S'\xb8\x1e\x85\xab\x8cl\x14@'
p1058
tp1059
Rp1060
aa(lp1061
g49
ag8
(g12
S'\x85|\xd0\xf3\x00\x89\x19@'
p1062
tp1063
Rp1064
aa(lp1065
g54
ag8
(g12
S'\x0fU\x0b\x9fA1 @'
p1066
tp1067
Rp1068
aa(lp1069
g59
ag8
(g12
S'\xf2\xf7xNz\x8c$@'
p1070
tp1071
Rp1072
aa(lp1073
g64
ag8
(g12
S'}\xae\xb6\xe2"\')@'
p1074
tp1075
Rp1076
aatp1077
Rp1078
ss.