(lp0
I-13
aI3
aI17
aI12
aI5
aI-2
aI22
aI-1
aI-2
aI12
aI-9
aI18
aI22
aI23
aI-5
aI-8
aI12
aI-14
aI-16
aI5
aI-12
aI2
aI23
aI27
aI-18
aI0
aI6
aI-9
aI-1
aI-18
aI-17
aI5
aI-18
aI-26
aI10
aI27
aI-4
aI-20
aI-12
aI-1
aI-17
aI22
aI18
aI14
aI-5
aI15
aI-18
aI15
aI-5
aI4
aI24
aI-18
aI-8
aI22
aI8
aI-13
aI25
aI17
aI-16
aI10
aI-23
aI-37
aI-4
aI1
aI12
aI-34
aI5
aI20
aI11
aI0
aI20
aI-22
aI5
aI-15
aI-5
aI22
aI35
aI-1
aI-4
aI2
aI-4
aI1
aI-22
aI-2
aI1
aI0
aI10
aI-14
aI24
aI20
aI-7
aI1
aI15
aI15
aI-7
aI28
aI-20
aI0
aI-3
aI2
aI3
aI15
aI-21
aI-13
aI-3
aI-17
aI8
aI-2
aI-20
aI27
aI9
aI4
aI-27
aI11
aI13
aI8
aI6
aI-1
aI10
aI15
aI-2
aI-10
aI24
aI8
aI19
aI-13
aI19
aI-29
aI-23
aI-7
aI-7
aI-10
aI-36
aI0
aI-29
aI-23
aI27
aI7
aI-3
aI-8
aI-10
aI21
aI26
aI17
aI-14
aI-6
aI-4
aI0
aI-3
aI12
aI-15
aI5
aI-2
aI-2
aI16
aI21
aI19
aI-6
aI-15
aI-10
aI18
aI-20
aI-29
aI-3
aI-22
aI7
aI10
aI-2
aI-15
aI13
aI30
aI34
aI-5
aI15
aI-9
aI-9
aI16
aI-20
aI-23
aI-7
aI-5
aI12
aI28
aI9
aI7
aI7
aI22
aI24
aI6
aI29
aI2
aI11
aI-16
aI-4
aI-22
aI17
aI0
aI5
aI-4
aI-18
aI-3
aI13
aI-22
aI-1
aI-13
aI-11
aI-18
aI15
aI0
aI8
aI0
aI25
aI-5
aI2
aI10
aI-8
aI-15
aI5
aI17
aI16
aI34
aI12
aI2
aI-4
aI10
aI-26
aI13
aI-23
aI-7
aI20
aI29
aI0
aI24
aI-20
aI-21
aI-6
aI-15
aI9
aI-20
aI-12
aI8
aI12
aI-4
aI19
aI0
aI-5
aI-21
aI11
aI-28
aI-13
aI-4
aI11
aI14
aI7
aI1
aI-8
aI-9
aI-13
aI3
aI0
aI-22
aI2
aI0
aI9
aI5
aI38
aI8
aI18
aI1
aI-23
aI-16
aI-20
aI-7
aI2
aI35
aI15
aI6
aI-13
aI22
aI9
aI14
aI1
aI20
aI0
aI-18
aI-8
aI4
aI5
aI-1
aI-17
aI-12
aI13
aI-8
aI17
aI-12
aI-14
aI12
aI2
aI19
aI-1
aI1
aI-7
aI7
aI-12
aI22
aI11
aI2
aI3
aI1
aI-12
aI8
aI11
aI18
aI-6
aI12
aI24
aI30
aI15
aI-9
aI-5
aI-1
aI-11
aI-9
aI6
aI1
aI-1
aI8
aI-2
aI28
aI-21
aI0
aI2
aI9
aI3
aI-14
aI-12
aI-10
aI-11
aI17
aI12
aI28
aI-27
aI14
aI-10
aI22
aI15
aI-2
aI3
aI0
aI-15
aI38
aI-7
aI-8
aI7
aI13
aI-22
aI-8
aI-1
aI1
aI1
aI10
aI-19
aI-4
aI1
aI13
aI-33
aI4
aI2
aI-18
aI36
aI-18
aI22
aI-2
aI-9
aI5
aI-30
aI9
aI-24
aI13
aI-5
aI7
aI30
aI17
aI6
aI19
aI8
aI0
aI12
aI15
aI22
aI29
aI8
aI-5
aI2
aI25
aI24
aI7
aI14
aI-4
aI23
aI-2
aI-1
aI21
aI15
aI1
aI10
aI21
aI0
aI-26
aI-10
aI-10
aI7
aI30
aI19
aI13
aI4
aI-9
aI-8
aI-12
aI1
aI1
aI-12
aI3
aI-2
aI-2
aI-1
aI-9
aI3
aI10
aI1
aI-8
aI-9
aI-3
aI1
aI-5
aI-12
aI9
aI-8
aI-18
aI-19
aI2
aI1
aI6
aI-7
aI-9
aI-5
aI-3
aI14
aI3
aI12
aI-30
aI10
aI-17
aI14
aI11
aI37
aI-20
aI-15
aI22
aI24
aI-11
aI0
aI-6
aI20
aI17
aI-12
aI6
aI0
aI33
aI-14
aI4
aI7
aI-15
aI11
aI10
aI12
aI-10
aI8
aI2
aI4
aI10
aI-24
aI35
aI-3
aI-37
aI-16
aI7
aI-6
aI2
aI5
aI16
aI-26
aI19
aI5
aI10
aI17
aI3
aI6
aI-5
aI-23
aI-4
aI28
aI2
aI21
aI8
aI26
aI-10
aI-1
aI2
aI6
aI37
aI0
aI15
aI17
aI3
aI13
aI2
aI-13
aI-8
aI-8
aI-6
aI12
aI11
aI7
aI9
aI21
aI9
aI-22
aI15
aI0
aI-30
aI-1
aI-1
aI-1
aI16
aI43
aI-5
aI17
aI12
aI2
aI-1
aI5
aI7
aI-10
aI-3
aI16
aI32
aI-10
aI0
aI-23
aI-10
aI-12
aI12
aI11
aI-3
aI-11
aI20
aI8
aI19
aI12
aI6
aI19
aI-2
aI-6
aI-22
aI-10
aI1
aI3
aI10
aI0
aI-8
aI12
aI19
aI-7
aI-15
aI12
aI-10
aI-9
aI-10
aI10
aI9
aI19
aI24
aI-21
aI7
aI-17
aI-9
aI5
aI3
aI-14
aI-22
aI0
aI20
aI28
aI-10
aI-5
aI10
aI-10
aI23
aI18
aI-13
aI3
aI4
aI18
aI14
aI-1
aI-16
aI-29
aI34
aI-17
aI-10
aI-11
aI-3
aI-7
aI5
aI0
aI-6
aI1
aI-9
aI3
aI5
aI-2
aI-28
aI-5
aI-8
aI-11
aI11
aI-13
aI3
aI3
aI-6
aI-16
aI-8
aI9
aI-5
aI6
aI-1
aI-27
aI0
aI-30
aI-23
aI20
aI3
aI-4
aI9
aI10
aI-24
aI-25
aI5
aI-6
aI13
aI37
aI30
aI23
aI-18
aI1
aI4
aI-11
aI-10
aI-18
aI0
aI-9
aI-2
aI-1
aI-6
aI2
aI-12
aI3
aI-6
aI37
aI9
aI-13
aI-2
aI-13
aI8
aI33
aI28
aI16
aI2
aI-11
aI-23
aI-13
aI-17
aI6
aI-18
aI2
aI-11
aI-28
aI-43
aI-26
aI0
aI21
aI14
aI-1
aI5
aI-12
aI-16
aI11
aI-2
aI-9
aI15
aI-23
aI6
aI11
aI-3
aI-4
aI-27
aI16
aI20
aI6
aI16
aI5
aI-28
aI-19
aI20
aI-24
aI2
aI-4
aI15
aI26
aI-5
aI-25
aI1
aI21
aI19
aI18
aI11
aI-42
aI-11
aI-4
aI15
aI-14
aI-12
aI-14
aI-1
aI-8
aI-12
aI2
aI5
aI0
aI30
aI-14
aI-17
aI3
aI-5
aI-3
aI-24
aI11
aI11
aI9
aI8
aI-11
aI4
aI43
aI7
aI0
aI-5
aI-15
aI-20
aI-6
aI9
aI4
aI-5
aI12
aI10
aI12
aI-11
aI10
aI7
aI-7
aI18
aI20
aI-2
aI13
aI23
aI-22
aI-19
aI-18
aI1
aI11
aI13
aI-5
aI9
aI2
aI4
aI15
aI-22
aI-22
aI13
aI-12
aI-5
aI-1
aI6
aI24
aI1
aI-15
aI-7
aI-23
aI3
aI-10
aI-7
aI16
aI-11
aI0
aI15
aI-32
aI-1
aI-1
aI9
aI-9
aI-4
aI17
aI-24
aI-21
aI-15
aI3
aI-1
aI19
aI9
aI33
aI22
aI-1
aI8
aI11
aI2
aI3
aI17
aI-5
aI-13
aI-26
aI10
aI-10
aI-10
aI20
aI-7
aI10
aI7
aI-13
aI10
aI-6
aI-7
aI31
aI-21
aI11
aI8
aI17
aI-15
aI-21
aI23
aI37
aI-1
aI21
aI-15
aI-1
aI-4
aI10
aI10
aI12
aI11
aI21
aI18
aI-1
aI16
aI-11
aI-22
aI11
aI40
aI15
aI-2
aI-5
aI7
aI-10
aI-3
aI-1
aI-7
aI13
aI18
aI18
aI21
aI-18
aI-8
aI6
aI3
aI14
aI-9
aI-6
aI0
aI-21
aI-3
aI-9
aI-35
aI18
aI-10
aI-8
aI-11
aI24
aI-17
aI-9
aI0
aI-16
aI-1
aI-40
aI-8
aI12
aI3
aI4
aI4
aI-6
aI-21
aI18
aI5
aI-19
aI27
aI4
aI12
aI18
aI7
aI19
aI-17
aI-22
aI13
aI10
aI3
aI-20
aI-1
aI14
aI-9
aI5
aI-3
aI24
aI-6
aI25
aI-13
aI-18
aI-15
aI14
aI-10
aI34
aI-16
aI-13
aI13
aI-18
aI0
aI21
aI-6
aI22
aI-1
aI-2
aI-22
aI-23
aI8
aI-9
aI12
aI-5
aI-14
aI11
aI-8
aI25
aI-9
aI21
aI-8
aI-4
aI-13
aI-7
aI-14
aI-16
aI9
aI17
aI-3
aI3
aI3
aI3
aI13
aI0
aI1
aI-24
aI-16
aI13
aI-38
aI3
aI2
aI3
aI11
aI7
aI1
aI-3
aI-3
aI0
aI-26
aI-6
aI11
aI-11
aI-20
aI-4
aI26
aI-1
aI-12
aI-15
aI-12
aI-10
aI-15
aI16
aI3
aI7
aI12
aI-19
aI11
aI3
aI13
aI-5
aI20
aI23
aI13
aI-10
aI29
aI2
aI-1
aI-14
aI-15
aI8
aI24
aI-13
aI-6
aI-6
aI10
aI1
aI26
aI1
aI-14
aI-10
aI-23
aI21
aI-14
aI-15
aI0
aI10
aI3
aI-8
aI4
aI3
aI20
aI-7
aI32
aI4
aI37
aI-20
aI-10
aI7
aI2
aI3
aI-3
aI43
aI-6
aI38
aI26
aI11
aI-9
aI-14
aI-42
aI16
aI7
aI-4
aI4
aI-6
aI-25
aI-18
aI5
aI-25
aI0
aI-3
aI8
aI-3
aI0
aI3
aI-6
aI3
aI4
aI18
aI18
aI-18
aI2
aI9
aI1
aI-17
aI-6
aI-10
aI-27
aI19
aI-3
aI3
aI-2
aI31
aI-14
aI1
aI12
aI-4
aI-11
aI-7
aI3
aI22
aI-3
aI-13
aI-4
aI-22
aI-1
aI29
aI-14
aI22
aI9
aI5
aI12
aI3
aI-7
aI1
aI-2
aI4
aI-20
aI23
aI3
aI-4
aI-13
aI10
aI-18
aI-5
aI-21
aI-30
aI13
aI-18
aI16
aI-30
aI-1
aI8
aI2
aI8
aI5
aI30
aI3
aI16
aI-4
aI8
aI-7
aI-25
aI9
aI-4
aI-19
aI20
aI-5
aI10
aI-2
aI1
aI6
aI-15
aI14
aI-9
aI-33
aI21
aI-6
aI-8
aI-19
aI12
aI6
aI8
aI-22
aI17
aI-3
aI2
aI-22
aI-30
aI25
aI-20
aI17
aI-7
aI-6
aI-9
aI24
aI-9
aI12
aI13
aI-8
aI4
aI-30
aI-19
aI31
aI9
aI-11
aI0
aI-7
aI-6
aI9
aI-12
aI26
aI-1
aI-9
aI20
aI-7
aI-5
aI-10
aI-7
aI21
aI1
aI7
aI-24
aI3
aI-22
aI14
aI-16
aI-12
aI6
aI6
aI-5
aI10
aI-9
aI-3
aI-4
aI-24
aI2
aI-22
aI33
aI-15
aI21
aI-1
aI3
aI-33
aI4
aI14
aI-9
aI-3
aI-8
aI19
aI14
aI-15
aI1
aI-10
aI-13
aI-20
aI-4
aI-10
aI-23
aI-4
aI21
aI-4
aI-11
aI3
aI27
aI-2
aI21
aI2
aI19
aI3
aI-1
aI-6
aI35
aI5
aI3
aI-28
aI-1
aI-2
aI-14
aI21
aI-4
aI17
aI16
aI17
aI14
aI25
aI16
aI0
aI27
aI-3
aI4
aI3
aI9
aI21
aI-5
aI23
aI12
aI-1
aI10
aI-24
aI-27
aI-12
aI-19
aI-2
aI-36
aI33
aI-7
aI24
aI-16
aI5
aI-20
aI11
aI6
aI-7
aI27
aI0
aI-12
aI23
aI0
aI-14
aI9
aI-12
aI23
aI-27
aI7
aI-7
aI-6
aI-5
aI27
aI4
aI3
aI18
aI-2
aI-12
aI-6
aI-16
aI15
aI14
aI-10
aI5
aI4
aI7
aI9
aI-4
aI-17
aI-7
aI22
aI-16
aI-3
aI-1
aI-15
aI-22
aI12
aI15
aI11
aI-4
aI-21
aI18
aI-1
aI-7
aI-1
aI4
aI29
aI-12
aI-17
aI18
aI12
aI29
aI1
aI-21
aI-5
aI11
aI4
aI-1
aI-14
aI9
aI10
aI6
aI-6
aI5
aI-30
aI-1
aI7
aI15
aI6
aI-22
aI4
aI-1
aI-10
aI15
aI-8
aI-20
aI-1
aI-3
aI15
aI4
aI5
aI14
aI21
aI-36
aI9
aI-26
aI16
aI-9
aI-9
aI20
aI-12
aI-15
aI-12
aI-24
aI2
aI2
aI-28
aI4
aI-13
aI-3
aI-18
aI-5
aI-16
aI-8
aI-3
aI7
aI-12
aI-15
aI5
aI-5
aI-2
aI-17
aI-8
aI17
aI4
aI5
aI10
aI21
aI18
aI-9
aI9
aI-13
aI12
aI-32
aI-20
aI-2
aI34
aI4
aI-3
aI-13
aI-27
aI0
aI-14
aI-12
aI16
aI18
aI-13
aI-2
aI-7
aI3
aI1
aI6
aI22
aI7
aI2
aI-3
aI-12
aI3
aI-21
aI3
aI13
aI-12
aI-32
aI-31
aI-18
aI15
aI-16
aI-16
aI-13
aI22
aI22
aI-32
aI-19
aI-3
aI42
aI-10
aI-27
aI-14
aI-33
aI-12
aI-13
aI-23
aI4
aI-22
aI17
aI-11
aI-11
aI1
aI6
aI6
aI11
aI-1
aI-10
aI2
aI-4
aI-16
aI5
aI30
aI-5
aI11
aI21
aI12
aI-2
aI1
aI-10
aI-25
aI-15
aI-7
aI5
aI3
aI-3
aI11
aI0
aI19
aI27
aI20
aI6
aI12
aI-6
aI-6
aI-8
aI13
aI-13
aI4
aI-7
aI0
aI-12
aI6
aI23
aI4
aI10
aI-12
aI-9
aI-3
aI12
aI16
aI29
aI-16
aI0
aI-10
aI-10
aI9
aI8
aI-23
aI18
aI-26
aI-6
aI17
aI21
aI-2
aI4
aI17
aI13
aI7
aI-5
aI23
aI-41
aI15
aI10
aI5
aI6
aI5
aI-6
aI33
aI-30
aI-17
aI-7
aI-22
aI9
aI-27
aI12
aI32
aI0
aI22
aI15
aI-7
aI-20
aI5
aI5
aI19
aI2
aI10
aI-11
aI10
aI-20
aI9
aI3
aI-25
aI-14
aI27
aI16
aI-16
aI-11
aI-11
aI-10
aI-9
aI-8
aI10
aI-25
aI-2
aI-9
aI13
aI-21
aI-4
aI-31
aI-16
aI-21
aI-5
aI3
aI14
aI5
aI-6
aI-8
aI20
aI-8
aI5
aI-41
aI-8
aI-16
aI-5
aI-3
aI-7
aI-9
aI19
aI4
aI-6
aI28
aI-4
aI0
aI-11
aI28
aI-2
aI-11
aI27
aI8
aI13
aI22
aI2
aI-16
aI-9
aI-2
aI-18
aI5
aI0
aI-32
aI-3
aI-14
aI-6
aI-16
aI-9
aI10
aI-5
aI11
aI1
aI10
aI-8
aI5
aI-26
aI-26
aI0
aI-19
aI35
aI18
aI19
aI6
aI9
aI1
aI18
aI-21
aI10
aI2
aI12
aI-23
aI-8
aI-39
aI-2
aI-4
aI28
aI3
aI-13
aI4
aI-11
aI5
aI-5
aI-12
aI24
aI14
aI28
aI3
aI16
aI-1
aI-4
aI13
aI-4
aI-8
aI3
aI0
aI-21
aI-8
aI18
aI20
aI0
aI11
aI4
aI-1
aI16
aI-14
aI-12
aI5
aI-13
aI-14
aI-17
aI30
aI-20
aI-2
aI7
aI-10
aI-1
aI-10
aI-24
aI11
aI-18
aI2
aI0
aI-6
aI-13
aI0
aI0
aI-3
aI-31
aI1
aI0
aI-25
aI-1
aI7
aI-22
aI1
aI25
aI1
aI-2
aI-27
aI27
aI8
aI32
aI14
aI7
aI6
aI12
aI-24
aI-9
aI18
aI-30
aI-12
aI0
aI-16
aI-8
aI-22
aI3
aI24
aI-20
aI-10
aI13
aI-1
aI-7
aI11
aI-14
aI-26
aI5
aI-1
aI-8
aI-6
aI-11
aI6
aI-10
aI-8
aI-3
aI23
aI-23
aI6
aI-14
aI19
aI26
aI8
aI-26
aI5
aI-9
aI7
aI0
aI-12
aI-7
aI10
aI-8
aI-14
aI34
aI-15
aI-1
aI-12
aI-14
aI11
aI22
aI1
aI-4
aI-2
aI3
aI-12
aI-7
aI11
aI-17
aI-16
aI-15
aI24
aI-10
aI24
aI1
aI5
aI-14
aI-17
aI-7
aI-11
aI1
aI-7
aI-10
aI6
aI-4
aI-8
aI-4
aI-6
aI15
aI6
aI-26
aI9
aI-11
aI-2
aI-46
aI17
aI-24
aI-8
aI14
aI-8
aI-17
aI17
aI6
aI26
aI-18
aI9
aI16
aI0
aI-5
aI-15
aI3
aI34
aI12
aI0
aI-1
aI-13
aI1
aI-15
aI10
aI30
aI26
aI-29
aI5
aI-27
aI-6
aI-1
aI-11
aI-2
aI9
aI-32
aI-15
aI5
aI11
aI-7
aI-2
aI-7
aI23
aI-18
aI-2
aI14
aI2
aI-10
aI35
aI-15
aI6
aI-5
aI-7
aI-7
aI21
aI10
aI-31
aI19
aI14
aI10
aI10
aI-5
aI16
aI20
aI34
aI-10
aI-1
aI5
aI6
aI-4
aI-14
aI-16
aI9
aI-15
aI-18
aI-36
aI0
aI10
aI-6
aI-22
aI-24
aI-21
aI1
aI-6
aI-20
aI19
aI-2
aI-18
aI-17
aI7
aI-6
aI-12
aI-19
aI-3
aI-12
aI10
aI-6
aI-22
aI-12
aI9
aI-18
aI-16
aI-13
aI0
aI-5
aI-11
aI4
aI12
aI-34
aI-33
aI0
aI24
aI28
aI-2
aI-11
aI-11
aI1
aI1
aI-2
aI-3
aI-7
aI-13
aI28
aI3
aI-1
aI-6
aI-23
aI-13
aI11
aI-9
aI7
aI-8
aI-11
aI-14
aI0
aI-14
aI5
aI34
aI-3
aI-14
aI-31
aI-6
aI24
aI-6
aI5
aI11
aI-14
aI-9
aI-10
aI-24
aI7
aI20
aI2
aI-22
aI-8
aI-9
aI-24
aI1
aI-14
aI-6
aI19
aI6
aI17
aI-28
aI-4
aI17
aI22
aI-13
aI1
aI-5
aI17
aI21
aI-16
aI2
aI-10
aI-22
aI-20
aI-14
aI-11
aI-14
aI5
aI-10
aI4
aI8
aI14
aI-3
aI-4
aI-6
aI16
aI7
aI2
aI-14
aI-11
aI12
aI-24
aI10
aI-9
aI8
aI12
aI-4
aI1
aI0
aI10
aI-25
aI-13
aI25
aI-22
aI23
aI10
aI-14
aI-9
aI16
aI0
aI-6
aI-26
aI0
aI-18
aI25
aI-12
aI3
aI8
aI12
aI4
aI-11
aI7
aI-12
aI-2
aI-2
aI26
aI-6
aI23
aI3
aI-11
aI-2
aI11
aI-16
aI-26
aI-3
aI11
aI-6
aI-15
aI-22
aI-10
aI1
aI29
aI-23
aI-2
aI21
aI3
aI-30
aI-13
aI23
aI3
aI-19
aI15
aI7
aI6
aI-3
aI3
aI-3
aI25
aI-21
aI3
aI2
aI-15
aI8
aI-8
aI-17
aI-19
aI-14
aI-19
aI2
aI1
aI0
aI5
aI-12
aI-18
aI17
aI-11
aI28
aI0
aI23
aI-26
aI-5
aI6
aI0
aI2
aI-23
aI1
aI31
aI8
aI4
aI9
aI38
aI7
aI-9
aI-14
aI-16
aI15
aI11
aI-4
aI22
aI16
aI-8
aI5
aI-27
aI-7
aI7
aI15
aI30
aI17
aI-11
aI-13
aI-2
aI-17
aI-36
aI4
aI-7
aI1
aI-24
aI-20
aI18
aI15
aI5
aI-24
aI-21
aI1
aI-12
aI-15
aI8
aI-6
aI-9
aI9
aI-18
aI11
aI25
aI-19
aI-8
aI4
aI0
aI-16
aI17
aI-11
aI-16
aI1
aI-8
aI-21
aI4
aI28
aI-9
aI0
aI2
aI-1
aI2
aI-10
aI1
aI5
aI-35
aI-17
aI-8
aI-6
aI14
aI-2
aI-32
aI0
aI7
aI-20
aI-18
aI27
aI10
aI-20
aI18
aI17
aI0
aI8
aI9
aI31
aI20
aI-28
aI0
aI12
aI19
aI-20
aI-19
aI36
aI-37
aI-13
aI-22
aI9
aI-10
aI0
aI7
aI-27
aI-19
aI-12
aI7
aI-18
aI11
aI3
aI1
aI3
aI4
aI22
aI5
aI17
aI-5
aI14
aI-10
aI9
aI24
aI4
aI11
aI-7
aI-19
aI-1
aI44
aI16
aI3
aI-2
aI-17
aI5
aI10
aI-4
aI11
aI-11
aI3
aI-6
aI-19
aI25
aI-16
aI13
aI-2
aI-3
aI0
aI31
aI-5
aI-27
aI0
aI2
aI18
aI-19
aI38
aI-10
aI-14
aI-7
aI-29
aI-14
aI14
aI13
aI-18
aI-1
aI-8
aI-1
aI-4
aI7
aI11
aI2
aI-14
aI12
aI4
aI15
aI38
aI2
aI-15
aI28
aI11
aI4
aI26
aI-24
aI3
aI-8
aI16
aI0
aI18
aI18
aI17
aI24
aI-2
aI-5
aI2
aI-5
aI-12
aI24
aI-5
aI0
aI-20
aI36
aI17
aI13
aI24
aI-17
aI-26
aI0
aI18
aI-20
aI-15
aI25
aI-32
aI-4
aI-10
aI16
aI27
aI-8
aI-1
aI0
aI24
aI-23
aI-7
aI8
aI7
aI3
aI5
aI-7
aI-13
aI9
aI12
aI0
aI4
aI-20
aI-3
aI-28
aI-2
aI-14
aI-3
aI29
aI7
aI1
aI-1
aI14
aI-10
aI-19
aI-19
aI4
aI21
aI10
aI-20
aI23
aI7
aI-20
aI3
aI-23
aI-16
aI-4
aI-38
aI-20
aI1
aI-2
aI-6
aI3
aI-9
aI-2
aI5
aI13
aI26
aI1
aI26
aI5
aI4
aI14
aI-10
aI8
aI-13
aI21
aI-8
aI24
aI-20
aI5
aI-15
aI20
aI-12
aI22
aI-5
aI-14
aI-18
aI5
aI-4
aI-11
aI13
aI-5
aI-10
aI0
aI-15
aI19
aI-13
aI-2
aI4
aI-1
aI-18
aI0
aI1
aI-10
aI26
aI-25
aI5
aI-1
aI-4
aI-9
aI-5
aI16
aI-15
aI2
aI20
aI22
aI-8
aI0
aI-1
aI-1
aI13
aI-7
aI-7
aI-3
aI24
aI16
aI-5
aI4
aI-22
aI-3
aI-3
aI-2
aI-3
aI-4
aI-7
aI5
aI8
aI13
aI2
aI3
aI4
aI-3
aI-21
aI-16
aI-1
aI-17
aI-10
aI-17
aI-3
aI12
aI6
aI28
aI13
aI21
aI17
aI21
aI-6
aI-9
aI15
aI3
aI-20
aI25
aI19
aI25
aI10
aI33
aI-5
aI-13
aI-17
aI11
aI-23
aI25
aI-2
aI3
aI10
aI-5
aI-8
aI4
aI6
aI-13
aI-51
aI-26
aI-18
aI-2
aI9
aI-4
aI7
aI6
aI17
aI13
aI25
aI0
aI-11
aI22
aI-17
aI-3
aI-9
aI22
aI8
aI-9
aI-25
aI3
aI-10
aI0
aI-17
aI5
aI24
aI10
aI21
aI-12
aI-12
aI23
aI8
aI18
aI-32
aI5
aI-5
aI18
aI-23
aI22
aI23
aI7
aI-1
aI-23
aI-28
aI-7
aI7
aI10
aI-6
aI12
aI-14
aI24
aI-3
aI18
aI2
aI12
aI-3
aI-11
aI-26
aI16
aI-34
aI13
aI17
aI-22
aI-2
aI9
aI5
aI-26
aI13
aI-18
aI36
aI10
aI-6
aI4
aI21
aI10
aI14
aI-11
aI11
aI20
aI15
aI-13
aI-25
aI-4
aI-24
aI1
aI7
aI20
aI-9
aI10
aI1
aI14
aI11
aI0
aI-2
aI7
aI14
aI-25
aI-9
aI24
aI-19
aI10
aI-14
aI-4
aI20
aI-4
aI4
aI-11
aI-21
aI12
aI10
aI31
aI-18
aI-7
aI-12
aI-26
aI-29
aI5
aI8
aI7
aI-10
aI3
aI-26
aI30
aI10
aI-1
aI-27
aI-24
aI1
aI11
aI-13
aI-13
aI29
aI2
aI14
aI-4
aI-7
aI8
aI17
aI-14
aI11
aI-19
aI10
aI7
aI9
aI-18
aI-5
aI8
aI22
aI-20
aI-8
aI-5
aI-10
aI-7
aI-14
aI-9
aI9
aI-2
aI15
aI6
aI-4
aI-17
aI-18
aI13
aI13
aI10
aI8
aI-17
aI14
aI3
aI-19
aI-12
aI10
aI-20
aI3
aI-1
aI2
aI-8
aI-3
aI24
aI-16
aI-3
aI17
aI29
aI4
aI26
aI5
aI-11
aI11
aI-2
aI-8
aI5
aI0
aI5
aI-21
aI-2
aI-27
aI4
aI21
aI28
aI0
aI7
aI16
aI-11
aI-30
aI9
aI-17
aI17
aI-28
aI-3
aI9
aI9
aI-16
aI17
aI-20
aI-25
aI4
aI-2
aI-15
aI21
aI-1
aI0
aI-36
aI-13
aI6
aI-11
aI-18
aI-7
aI17
aI20
aI-7
aI-8
aI33
aI-17
aI9
aI-5
aI11
aI-20
aI5
aI5
aI17
aI19
aI-12
aI-5
aI19
aI-9
aI-13
aI17
aI-4
aI-15
aI30
aI9
aI-10
aI-16
aI6
aI9
aI-35
aI-20
aI2
aI-24
aI-1
aI-18
aI19
aI17
aI20
aI-5
aI-15
aI-17
aI3
aI-4
aI-1
aI-23
aI16
aI15
aI-7
aI-3
aI-2
aI14
aI17
aI23
aI-11
aI9
aI-18
aI0
aI22
aI8
aI16
aI11
aI-2
aI26
aI23
aI-15
aI9
aI5
aI6
aI7
aI-2
aI10
aI-2
aI-12
aI2
aI-14
aI-29
aI-21
aI28
aI9
aI-20
aI9
aI-7
aI-22
aI-35
aI31
aI2
aI1
aI29
aI1
aI-2
aI-4
aI-32
aI-17
aI-3
aI-17
aI-7
aI8
aI6
aI5
aI18
aI-17
aI5
aI-9
aI-10
aI-11
aI17
aI-8
aI18
aI-3
aI-16
aI19
aI-14
aI16
aI-19
aI0
aI-3
aI-34
aI11
aI-23
aI-10
aI20
aI2
aI-8
aI2
aI-1
aI28
aI4
aI-10
aI15
aI23
aI-14
aI-19
aI46
aI-2
aI5
aI14
aI-4
aI-2
aI-18
aI18
aI0
aI5
aI-24
aI2
aI4
aI17
aI-16
aI3
aI-6
aI20
aI10
aI8
aI13
aI-28
aI6
aI20
aI1
aI13
aI-6
aI-17
aI-12
aI19
aI20
aI-25
aI-23
aI-21
aI0
aI-5
aI4
aI-12
aI25
aI22
aI6
aI-25
aI22
aI16
aI-4
aI-20
aI19
aI12
aI1
aI-9
aI7
aI15
aI12
aI6
aI-14
aI-13
aI-16
aI17
aI13
aI-12
aI0
aI-2
aI-1
aI21
aI-21
aI8
aI5
aI10
aI28
aI2
aI30
aI-5
aI-17
aI2
aI2
aI-31
aI2
aI2
aI-5
aI-10
aI29
aI-13
aI26
aI-22
aI5
aI2
aI4
aI11
aI-1
aI-4
aI-10
aI19
aI-26
aI-6
aI16
aI-22
aI-25
aI14
aI0
aI21
aI18
aI13
aI-3
aI9
aI8
aI-29
aI-1
aI8
aI10
aI5
aI-3
aI-1
aI-10
aI-4
aI6
aI-15
aI7
aI-19
aI10
aI17
aI-11
aI16
aI1
aI18
aI12
aI4
aI-19
aI-12
aI10
aI6
aI-8
aI-10
aI0
aI11
aI14
aI11
aI14
aI-2
aI-24
aI-8
aI14
aI18
aI26
aI-15
aI4
aI-22
aI7
aI-7
aI-28
aI18
aI10
aI13
aI-10
aI18
aI9
aI7
aI12
aI-1
aI9
aI19
aI1
aI-6
aI15
aI-10
aI9
aI5
aI25
aI6
aI-3
aI6
aI-3
aI13
aI6
aI-2
aI4
aI14
aI0
aI-27
aI10
aI-5
aI20
aI-18
aI-2
aI-15
aI33
aI16
aI-17
aI4
aI-9
aI-25
aI0
aI2
aI-14
aI-10
aI1
aI8
aI3
aI-8
aI17
aI-3
aI15
aI4
aI-7
aI5
aI18
aI-4
aI19
aI20
aI-9
aI-5
aI12
aI-7
aI-5
aI13
aI-16
aI23
aI3
aI15
aI9
aI32
aI6
aI-18
aI10
aI-6
aI-21
aI12
aI-10
aI-8
aI6
aI2
aI3
aI-13
aI-13
aI-2
aI2
aI-4
aI1
aI-4
aI-12
aI16
aI-26
aI24
aI-2
aI2
aI-14
aI6
aI22
aI-10
aI21
aI-15
aI-17
aI5
aI-10
aI11
aI2
aI20
aI-22
aI4
aI-6
aI12
aI-16
aI-20
aI-5
aI-5
aI-20
aI-10
aI13
aI3
aI-8
aI5
aI11
aI-17
aI11
aI7
aI16
aI-3
aI-8
aI-3
aI16
aI2
aI2
aI-17
aI10
aI-3
aI5
aI2
aI20
aI-9
aI-14
aI11
aI3
aI5
aI-3
aI-13
aI15
aI-18
aI6
aI5
aI5
aI14
aI-3
aI-5
aI27
aI15
aI8
aI-17
aI-3
aI13
aI-4
aI15
aI5
aI19
aI-17
aI2
aI-13
aI-1
aI4
aI-7
aI3
aI-18
aI-5
aI-3
aI-3
aI-3
aI6
aI-11
aI-4
aI9
aI8
aI19
aI3
aI-1
aI3
aI17
aI-10
aI8
aI12
aI14
aI13
aI-12
aI5
aI-6
aI-7
aI13
aI-12
aI-4
aI6
aI-7
aI-16
aI-23
aI-12
aI-14
aI4
aI11
aI-8
aI-7
aI2
aI-5
aI-27
aI-1
aI11
aI2
aI13
aI12
aI-25
aI1
aI20
aI-17
aI-12
aI16
aI11
aI9
aI-23
aI3
aI0
aI-30
aI19
aI5
aI-21
aI10
aI-12
aI-9
aI-16
aI0
aI-2
aI7
aI4
aI-9
aI13
aI-12
aI11
aI4
aI8
aI-20
aI8
aI-14
aI2
aI-6
aI-6
aI12
aI21
aI11
aI3
aI-8
aI-13
aI-16
aI-8
aI-6
aI-7
aI-4
aI17
aI-20
aI-11
aI-2
aI2
aI-16
aI6
aI-7
aI-9
aI13
aI-9
aI-18
aI7
aI-5
aI-5
aI5
aI14
aI3
aI10
aI-10
aI17
aI4
aI-2
aI-32
aI2
aI-9
aI1
aI-11
aI1
aI9
aI-7
aI4
aI10
aI16
aI-2
aI-18
aI8
aI30
aI1
aI-6
aI-2
aI-16
aI2
aI4
aI4
aI-4
aI-8
aI15
aI-2
aI10
aI-6
aI-14
aI1
aI-20
aI-5
aI2
aI19
aI-1
aI2
aI-1
aI28
aI-3
aI0
aI-20
aI25
aI-5
aI7
aI16
aI-2
aI-14
aI16
aI-5
aI-14
aI3
aI-23
aI8
aI-27
aI-27
aI-23
aI-1
aI-16
aI8
aI-33
aI-4
aI17
aI-26
aI8
aI-20
aI-23
aI4
aI20
aI2
aI2
aI11
aI-20
aI3
aI-6
aI16
aI10
aI4
aI6
aI14
aI-27
aI14
aI3
aI-7
aI-18
aI12
aI10
aI-6
aI-7
aI2
aI16
aI5
aI-27
aI2
aI-2
aI-11
aI12
aI-19
aI-1
aI16
aI3
aI12
aI-15
aI12
aI14
aI-11
aI-3
aI-1
aI-4
aI-18
aI-15
aI-23
aI4
aI-4
aI-14
aI-15
aI-13
aI-3
aI7
aI-1
aI13
aI15
aI13
aI-15
aI1
aI-8
aI10
aI-8
aI10
aI9
aI6
aI-16
aI-7
aI3
aI-15
aI16
aI-12
aI19
aI11
aI-12
aI5
aI-15
aI-12
aI-25
aI20
aI22
aI-7
aI-6
aI8
aI-12
aI4
aI2
aI-10
aI-2
aI27
aI-9
aI-12
aI0
aI-10
aI-15
aI1
aI0
aI7
aI3
aI-23
aI4
aI20
aI11
aI-1
aI17
aI-5
aI16
aI10
aI14
aI10
aI23
aI-4
aI3
aI13
aI11
aI-10
aI-9
aI-1
aI-2
aI7
aI-21
aI-15
aI-5
aI-4
aI7
aI18
aI4
aI10
aI9
aI-15
aI-3
aI14
aI-3
aI3
aI0
aI2
aI17
aI-8
aI4
aI28
aI9
aI-10
aI4
aI-7
aI2
aI-5
aI-12
aI-7
aI-16
aI-10
aI-8
aI-6
aI13
aI-2
aI-8
aI5
aI0
aI1
aI6
aI10
aI-11
aI-11
aI-20
aI-13
aI14
aI-6
aI-5
aI10
aI-15
aI-3
aI-3
aI-1
aI-8
aI4
aI-3
aI7
aI18
aI13
aI-13
aI8
aI-7
aI-3
aI0
aI-13
aI-5
aI14
aI0
aI-11
aI21
aI-1
aI7
aI0
aI9
aI-10
aI13
aI-15
aI-6
aI-9
aI-12
aI-12
aI16
aI-7
aI-24
aI12
aI-7
aI3
aI13
aI25
aI-3
aI14
aI-11
aI25
aI-3
aI-8
aI-14
aI-2
aI1
aI-4
aI-3
aI4
aI-21
aI12
aI-22
aI-9
aI-15
aI5
aI4
aI0
aI0
aI24
aI-4
aI-38
aI-5
aI15
aI1
aI4
aI-13
aI-2
aI-19
aI-22
aI23
aI6
aI-9
aI-22
aI12
aI0
aI27
aI-1
aI-9
aI-6
aI-20
aI-13
aI-16
aI0
aI19
aI2
aI12
aI-1
aI-6
aI-26
aI14
aI1
aI-17
aI5
aI6
aI11
aI3
aI10
aI-1
aI-24
aI0
aI6
aI-18
aI-6
aI-25
aI22
aI3
aI22
aI24
aI8
aI13
aI-14
aI2
aI7
aI-5
aI15
aI13
aI-1
aI2
aI-1
aI-17
aI4
aI15
aI20
aI6
aI-11
aI20
aI0
aI13
aI9
aI-15
aI4
aI14
aI-6
aI-2
aI6
aI-4
aI-6
aI-15
aI24
aI9
aI5
aI-15
aI-5
aI24
aI-6
aI-16
aI-1
aI-9
aI-5
aI-2
aI3
aI27
aI6
aI9
aI15
aI4
aI-5
aI21
aI-22
aI8
aI14
aI19
aI11
aI-8
aI-19
aI-14
aI8
aI-2
aI-1
aI1
aI-14
aI-14
aI-10
aI11
aI7
aI6
aI-12
aI-19
aI16
aI-5
aI-13
aI7
aI-2
aI-1
aI-23
aI5
aI19
aI-18
aI-7
aI-13
aI-10
aI-15
aI-11
aI-2
aI-4
aI-9
aI0
aI-14
aI-11
aI2
aI-9
aI13
aI-17
aI3
aI-2
aI1
aI-20
aI6
aI-2
aI-17
aI-5
aI-3
aI-12
aI-11
aI13
aI16
aI2
aI-2
aI17
aI-2
aI8
aI-20
aI10
aI19
aI-7
aI13
aI11
aI-7
aI-12
aI-29
aI-33
aI-16
aI9
aI-23
aI-1
aI22
aI14
aI-8
aI-9
aI0
aI-14
aI17
aI10
aI12
aI-3
aI23
aI5
aI-4
aI20
aI5
aI-6
aI-24
aI5
aI18
aI-8
aI15
aI-25
aI13
aI4
aI10
aI9
aI17
aI-6
aI25
aI-27
aI-2
aI-2
aI11
aI-8
aI-2
aI11
aI-9
aI1
aI2
aI-6
aI-22
aI20
aI-3
aI-7
aI8
aI0
aI8
aI-10
aI-11
aI2
aI-18
aI10
aI6
aI-19
aI5
aI-15
aI-17
aI-23
aI0
aI-3
aI1
aI-4
aI2
aI-10
aI6
aI11
aI-5
aI6
aI-4
aI-10
aI4
aI13
aI21
aI-13
aI-3
aI-14
aI-14
aI5
aI24
aI-11
aI5
aI5
aI-2
aI13
aI21
aI6
aI-8
aI15
aI3
aI-10
aI-13
aI2
aI3
aI-9
aI6
aI-9
aI-7
aI18
aI-8
aI-2
aI10
aI-13
aI-17
aI8
aI-25
aI9
aI-7
aI16
aI2
aI8
aI32
aI-5
aI12
aI-3
aI16
aI9
aI-3
aI10
aI1
aI6
aI-25
aI16
aI-6
aI-16
aI-16
aI15
aI-16
aI0
aI12
aI-5
aI-23
aI21
aI6
aI15
aI22
aI3
aI3
aI-15
aI-11
aI-11
aI6
aI3
aI1
aI17
aI-2
aI-3
aI19
aI-22
aI0
aI1
aI9
aI12
aI-17
aI-17
aI16
aI0
aI-3
aI-24
aI-8
aI-1
aI19
aI-19
aI-26
aI16
aI-9
aI7
aI-18
aI4
aI10
aI2
aI14
aI-6
aI-9
aI-7
aI-6
aI7
aI-4
aI-3
aI-3
aI6
aI5
aI-14
aI-16
aI3
aI2
aI12
aI10
aI-1
aI-17
aI16
aI11
aI-2
aI-15
aI-8
aI-15
aI-1
aI-11
aI6
aI14
aI-24
aI11
aI-10
aI7
aI19
aI-2
aI18
aI18
aI1
aI-27
aI-10
aI-8
aI-2
aI6
aI-7
aI7
aI3
aI-16
aI-3
aI0
aI-6
aI-25
aI24
aI-13
aI11
aI12
aI3
aI2
aI9
aI-29
aI-2
aI-22
aI0
aI0
aI-2
aI-20
aI10
aI1
aI22
aI1
aI-16
aI11
aI10
aI-10
aI-10
aI-16
aI-15
aI12
aI-3
aI-17
aI12
aI2
aI24
aI-13
aI-1
aI-24
aI2
aI8
aI21
aI4
aI4
aI-1
aI-12
aI-20
aI8
aI-5
aI7
aI-14
aI-25
aI2
aI1
aI-18
aI-8
aI-6
aI-18
aI-6
aI-5
aI-8
aI4
aI-5
aI17
aI-24
aI18
aI-3
aI13
aI-2
aI-10
aI-17
aI6
aI3
aI16
aI6
aI-16
aI10
aI25
aI0
aI20
aI23
aI-4
aI-16
aI-13
aI-16
aI2
aI10
aI-4
aI27
aI-7
aI-1
aI8
aI6
aI-11
aI-8
aI-11
aI-8
aI-9
aI18
aI-7
aI1
aI4
aI-6
aI4
aI-2
aI-16
aI23
aI2
aI8
aI8
aI11
aI-9
aI3
aI-16
aI-15
aI-23
aI9
aI3
aI0
aI8
aI22
aI2
aI-23
aI-13
aI2
aI7
aI28
aI-11
aI13
aI11
aI-2
aI-10
aI-14
aI13
aI13
aI8
aI-18
aI-10
aI-1
aI-10
aI-4
aI-2
aI-26
aI-15
aI11
aI0
aI7
aI5
aI-4
aI-6
aI4
aI-30
aI4
aI13
aI-23
aI-4
aI8
aI4
aI-3
aI-4
aI2
aI-14
aI1
aI-10
aI-21
aI9
aI10
aI-19
aI-20
aI-18
aI-6
aI-4
aI-4
aI6
aI-2
aI25
aI26
aI-3
aI11
aI10
aI-14
aI15
aI-4
aI-4
aI-8
aI-3
aI-8
aI0
aI3
aI1
aI20
aI-3
aI13
aI-17
aI0
aI-9
aI-7
aI5
aI14
aI18
aI-25
aI8
aI19
aI5
aI-9
aI-8
aI-10
aI8
aI4
aI8
aI-4
aI-14
aI-4
aI-12
aI-22
aI-12
aI-9
aI13
aI-11
aI10
aI-1
aI-11
aI8
aI-6
aI-13
aI-9
aI1
aI8
aI-5
aI4
aI8
aI13
aI-6
aI12
aI-19
aI13
aI16
aI10
aI-5
aI9
aI-27
aI-1
aI9
aI-9
aI19
aI-1
aI-11
aI16
aI0
aI5
aI-21
aI-8
aI4
aI-1
aI1
aI10
aI25
aI-9
aI5
aI20
aI9
aI14
aI-6
aI-4
aI11
aI13
aI15
aI27
aI-13
aI-14
aI-2
aI-3
aI-6
aI12
aI-6
aI-7
aI10
aI-20
aI1
aI27
aI5
aI-11
aI-1
aI11
aI-4
aI5
aI26
aI6
aI14
aI-4
aI-10
aI9
aI6
aI4
aI11
aI20
aI5
aI1
aI3
aI2
aI17
aI-16
aI-3
aI-5
aI-24
aI-5
aI3
aI-24
aI-11
aI-12
aI11
aI-1
aI12
aI-7
aI-8
aI4
aI-4
aI18
aI5
aI1
aI3
aI-1
aI-9
aI0
aI4
aI-10
aI23
aI-1
aI-33
aI31
aI15
aI-5
aI-16
aI7
aI-3
aI11
aI-32
aI14
aI12
aI-16
aI7
aI3
aI-15
aI12
aI-16
aI-12
aI11
aI23
aI-23
aI-4
aI-4
aI11
aI-24
aI15
aI-9
aI0
aI16
aI11
aI-20
aI5
aI-6
aI15
aI8
aI-14
aI-22
aI-11
aI-18
aI-6
aI2
aI4
aI12
aI-27
aI-7
aI14
aI23
aI11
aI4
aI7
aI14
aI10
aI9
aI-1
aI-5
aI13
aI-2
aI-15
aI11
aI6
aI6
aI3
aI-10
aI-7
aI4
aI-2
aI-14
aI-13
aI-15
aI3
aI4
aI10
aI-3
aI3
aI25
aI-21
aI5
aI-14
aI13
aI-8
aI-17
aI-2
aI4
aI7
aI19
aI16
aI-2
aI17
aI1
aI-18
aI25
aI-5
aI0
aI-9
aI-6
aI3
aI2
aI-17
aI7
aI-18
aI-1
aI-6
aI-9
aI0
aI-6
aI-9
aI-10
aI12
aI-7
aI0
aI24
aI16
aI21
aI7
aI28
aI-21
aI-6
aI-8
aI-13
aI-2
aI-2
aI9
aI-29
aI-4
aI10
aI-10
aI-21
aI-7
aI14
aI18
aI8
aI-9
aI-17
aI26
aI-3
aI-2
aI-10
aI12
aI-4
aI27
aI-5
aI9
aI3
aI5
aI-7
aI10
aI-9
aI19
aI26
aI-17
aI6
aI-24
aI6
aI-24
aI-8
aI-7
aI9
aI5
aI6
aI-14
aI3
aI11
aI-15
aI23
aI-14
aI-8
aI11
aI-8
aI-11
aI-12
aI-11
aI-5
aI-7
aI14
aI-14
aI-4
aI4
aI6
aI3
aI-8
aI-8
aI4
aI-23
aI11
aI-6
aI1
aI-20
aI10
aI7
aI-3
aI9
aI-11
aI-19
aI-12
aI12
aI16
aI-1
aI33
aI-15
aI-18
aI15
aI-15
aI1
aI16
aI11
aI3
aI16
aI-2
aI-3
aI-25
aI13
aI19
aI-19
aI3
aI3
aI3
aI12
aI1
aI-9
aI8
aI3
aI-10
aI6
aI2
aI1
aI11
aI-10
aI-2
aI6
aI2
aI-6
aI-1
aI-15
aI-6
aI-13
aI-2
aI-6
aI-3
aI4
aI-8
aI-16
aI19
aI14
aI16
aI11
aI4
aI-12
aI-1
aI-25
aI-19
aI10
aI1
aI13
aI9
aI-5
aI17
aI-12
aI-18
aI11
aI3
aI12
aI-5
aI-8
aI25
aI-14
aI-2
aI8
aI-4
aI-27
aI-5
aI-4
aI-6
aI-10
aI-22
aI-4
aI0
aI2
aI-12
aI-6
aI6
aI-9
aI-9
aI-12
aI-2
aI10
aI-9
aI-3
aI-14
aI6
aI7
aI6
aI19
aI14
aI13
aI-15
aI-15
aI12
aI10
aI10
aI2
aI-6
aI5
aI-10
aI4
aI1
aI-4
aI-15
aI-8
aI17
aI1
aI-4
aI20
aI2
aI7
aI0
aI3
aI-14
aI8
aI20
aI-26
aI-1
aI12
aI5
aI-4
aI20
aI27
aI4
aI-9
aI17
aI13
aI-7
aI4
aI-13
aI0
aI-16
aI6
aI6
aI-20
aI-4
aI11
aI-23
aI3
aI9
aI-7
aI-19
aI-9
aI0
aI1
aI-35
aI2
aI21
aI1
aI-7
aI10
aI13
aI-8
aI0
aI8
aI9
aI17
aI-13
aI9
aI0
aI-7
aI-5
aI-9
aI12
aI-1
aI6
aI-24
aI15
aI-13
aI-2
aI-22
aI5
aI7
aI4
aI6
aI18
aI9
aI0
aI19
aI4
aI-1
aI-25
aI-3
aI-4
aI14
aI19
aI0
aI1
aI-2
aI-10
aI-14
aI-2
aI-3
aI27
aI2
aI-12
aI16
aI9
aI-25
aI-26
aI8
aI-24
aI-9
aI3
aI-13
aI5
aI-12
aI-5
aI9
aI5
aI13
aI-23
aI11
aI3
aI4
aI-6
aI5
aI1
aI17
aI12
aI13
aI4
aI-13
aI-9
aI-6
aI-15
aI4
aI-25
aI2
aI5
aI21
aI16
aI8
aI-8
aI7
aI13
aI10
aI-1
aI15
aI6
aI-20
aI-17
aI10
aI-6
aI7
aI8
aI-2
aI16
aI-2
aI5
aI22
aI-17
aI-1
aI15
aI-23
aI-2
aI-12
aI-13
aI-11
aI-12
aI-5
aI-8
aI-13
aI1
aI7
aI-10
aI-2
aI-6
aI-4
aI5
aI6
aI-23
aI-4
aI-16
aI24
aI9
aI-4
aI-20
aI1
aI-4
aI-21
aI13
aI7
aI-4
aI9
aI7
aI-11
aI26
aI-5
aI-10
aI6
aI10
aI-17
aI-20
aI-3
aI1
aI-9
aI0
aI15
aI-3
aI8
aI1
aI4
aI3
aI13
aI-14
aI-3
aI2
aI3
aI-9
aI-9
aI18
aI-17
aI5
aI13
aI-8
aI12
aI-10
aI4
aI19
aI13
aI7
aI0
aI5
aI6
aI-32
aI-12
aI3
aI-11
aI-12
aI3
aI11
aI4
aI-5
aI-6
aI-12
aI-4
aI19
aI3
aI-3
aI-18
aI17
aI3
aI0
aI-1
aI15
aI5
aI1
aI-6
aI-14
aI-9
aI6
aI-16
aI15
aI-8
aI-3
aI11
aI13
aI15
aI1
aI-29
aI10
aI-20
aI2
aI13
aI-24
aI4
aI-5
aI2
aI4
aI-4
aI-4
aI19
aI19
aI-18
aI2
aI9
aI12
aI0
aI10
aI3
aI-13
aI20
aI-5
aI-3
aI-20
aI15
aI-12
aI-3
aI-14
aI5
aI-17
aI4
aI26
aI-10
aI-13
aI-17
aI-3
aI9
aI-6
aI-3
aI-5
aI13
aI-18
aI12
aI-10
aI-21
aI21
aI-17
aI10
aI-5
aI-9
aI9
aI-18
aI5
aI13
aI-21
aI19
aI2
aI0
aI1
aI-18
aI17
aI-11
aI4
aI17
aI12
aI2
aI4
aI-15
aI15
aI0
aI-5
aI7
aI1
aI-19
aI18
aI2
aI9
aI-12
aI-26
aI-23
aI12
aI-20
aI-13
aI23
aI1
aI-23
aI10
aI6
aI24
aI-15
aI-14
aI21
aI24
aI-20
aI-13
aI6
aI2
aI9
aI-8
aI0
aI8
aI-6
aI6
aI-6
aI-2
aI-12
aI8
aI10
aI23
aI1
aI17
aI7
aI-1
aI3
aI-7
aI-25
aI-9
aI20
aI2
aI2
aI10
aI10
aI-2
aI5
aI-1
aI6
aI-15
aI-12
aI1
aI14
aI5
aI13
aI-19
aI0
aI7
aI8
aI-7
aI5
aI3
aI-4
aI-9
aI-7
aI-3
aI8
aI5
aI-16
aI5
aI3
aI6
aI9
aI3
aI-5
aI20
aI20
aI-6
aI9
aI11
aI8
aI-9
aI14
aI-20
aI12
aI7
aI9
aI12
aI10
aI18
aI11
aI-13
aI14
aI20
aI8
aI20
aI-32
aI8
aI-3
aI8
aI4
aI-5
aI23
aI12
aI4
aI17
aI-21
aI-1
aI-32
aI23
aI-15
aI-20
aI-5
aI30
aI-2
aI-2
aI2
aI0
aI-7
aI4
aI8
aI-8
aI-22
aI5
aI-9
aI9
aI10
aI4
aI-9
aI-1
aI-2
aI-25
aI-1
aI-7
aI-1
aI-13
aI8
aI1
aI4
aI-2
aI25
aI-1
aI8
aI12
aI8
aI2
aI23
aI7
aI-7
aI-12
aI13
aI11
aI2
aI15
aI-20
aI-17
aI3
aI11
aI-14
aI-1
aI1
aI-17
aI17
aI12
aI8
aI10
aI-16
aI8
aI-5
aI14
aI6
aI-15
aI-3
aI-2
aI8
aI-16
aI9
aI13
aI-21
aI18
aI5
aI5
aI12
aI-19
aI11
aI-2
aI-19
aI-20
aI-11
aI-16
aI-20
aI0
aI-14
aI0
aI-19
aI-5
aI14
aI1
aI5
aI4
aI7
aI3
aI3
aI12
aI14
aI10
aI-2
aI-5
aI-15
aI0
aI-12
aI2
aI-6
aI14
aI13
aI11
aI-9
aI7
aI-26
aI-6
aI-11
aI0
aI2
aI-3
aI-9
aI-19
aI-5
aI4
aI4
aI1
aI-13
aI14
aI-35
aI2
aI14
aI-17
aI1
aI14
aI18
aI-18
aI-2
aI-7
aI0
aI9
aI-12
aI-8
aI6
aI-12
aI-3
aI10
aI13
aI-3
aI19
aI19
aI9
aI13
aI-6
aI8
aI33
aI-7
aI-4
aI-16
aI1
aI-25
aI3
aI9
aI4
aI2
aI16
aI-9
aI6
aI0
aI2
aI4
aI-28
aI1
aI35
aI-13
aI18
aI-11
aI11
aI-11
aI-7
aI-5
aI23
aI-1
aI13
aI-21
aI-7
aI9
aI19
aI-8
aI7
aI20
aI1
aI11
aI9
aI16
aI8
aI4
aI17
aI-2
aI-21
aI6
aI0
aI-3
aI22
aI3
aI17
aI13
aI-12
aI2
aI-1
aI14
aI13
aI13
aI-23
aI2
aI-6
aI-8
aI8
aI-2
aI12
aI15
aI-8
aI20
aI-16
aI-7
aI-9
aI8
aI0
aI-16
aI23
aI-15
aI9
aI22
aI-8
aI-6
aI-6
aI21
aI-3
aI16
aI4
aI15
aI5
aI-4
aI17
aI-15
aI10
aI10
aI-1
aI-17
aI-16
aI-11
aI2
aI14
aI-6
aI-11
aI3
aI3
aI-2
aI-20
aI-6
aI8
aI-4
aI5
aI5
aI5
aI-17
aI-4
aI-1
aI-3
aI-33
aI0
aI0
aI12
aI5
aI15
aI2
aI0
aI0
aI-13
aI-11
aI10
aI15
aI-4
aI29
aI26
aI16
aI-5
aI10
aI8
aI8
aI11
aI-22
aI-4
aI-13
aI-4
aI7
aI5
aI26
aI16
aI-10
aI11
aI-11
aI5
aI-3
aI-6
aI-6
aI12
aI14
aI-15
aI-12
aI5
aI20
aI11
aI15
aI10
aI4
aI9
aI26
aI-8
aI6
aI19
aI-19
aI-5
aI-6
aI26
aI11
aI0
aI-4
aI-12
aI-2
aI25
aI-5
aI21
aI-23
aI14
aI-14
aI18
aI7
aI5
aI-5
aI-32
aI-16
aI6
aI-9
aI13
aI-3
aI3
aI-10
aI6
aI4
aI-10
aI-11
aI-8
aI-9
aI-18
aI7
aI-8
aI8
aI12
aI-3
aI-4
aI-11
aI-5
aI7
aI32
aI3
aI-31
aI22
aI-5
aI-7
aI2
aI14
aI13
aI5
aI8
aI5
aI-4
aI10
aI20
aI12
aI-11
aI-6
aI20
aI-6
aI-17
aI-11
aI2
aI2
aI-13
aI9
aI-7
aI-15
aI17
aI24
aI5
aI5
aI8
aI12
aI10
aI7
aI5
aI-5
aI-14
aI2
aI2
aI-4
aI9
aI-7
aI-1
aI3
aI-7
aI14
aI1
aI-8
aI-4
aI-5
aI6
aI3
aI-15
aI17
aI24
aI-18
aI-1
aI-20
aI1
aI7
aI-15
aI11
aI20
aI17
aI18
aI18
aI-24
aI12
aI-7
aI1
aI0
aI1
aI11
aI-12
aI-25
aI-5
aI26
aI16
aI29
aI5
aI12
aI-32
aI-4
aI8
aI-4
aI7
aI-1
aI5
aI9
aI11
aI-17
aI-8
aI14
aI19
aI27
aI10
aI-2
aI-16
aI15
aI1
aI4
aI3
aI-2
aI-16
aI14
aI12
aI13
aI21
aI3
aI-18
aI-1
aI-24
aI-9
aI21
aI11
aI-12
aI7
aI-9
aI-3
aI8
aI-8
aI26
aI-9
aI-6
aI-3
aI-7
aI7
aI-18
aI-14
aI2
aI-16
aI-7
aI14
aI2
aI8
aI1
aI2
aI13
aI5
aI-16
aI5
aI9
aI0
aI-8
aI8
aI-13
aI1
aI-2
aI13
aI-7
aI-2
aI3
aI2
aI16
aI-12
aI3
aI-17
aI0
aI-6
aI-14
aI-5
aI-19
aI3
aI3
aI15
aI19
aI-12
aI19
aI3
aI3
aI-8
aI-9
aI-17
aI-10
aI5
aI-14
aI9
aI-17
aI-9
aI20
aI32
aI-7
aI4
aI13
aI-5
aI2
aI9
aI-11
aI8
aI-2
aI18
aI-3
aI12
aI11
aI11
aI0
aI-9
aI-3
aI13
aI-18
aI-11
aI18
aI-1
aI15
aI-10
aI-16
aI1
aI28
aI-16
aI-9
aI-1
aI12
aI3
aI-6
aI6
aI-10
aI11
aI-9
aI2
aI-3
aI10
aI8
aI10
aI-23
aI9
aI19
aI-2
aI-21
aI19
aI4
aI-4
aI7
aI-2
aI8
aI19
aI-7
aI-13
aI-13
aI7
aI18
aI9
aI-5
aI12
aI6
aI-6
aI-3
aI-8
aI-13
aI1
aI-2
aI1
aI-11
aI-14
aI7
aI-11
aI-9
aI1
aI-18
aI4
aI5
aI-22
aI-4
aI9
aI-7
aI-5
aI-24
aI6
aI27
aI11
aI-3
aI-4
aI5
aI18
aI13
aI12
aI-19
aI-18
aI-28
aI11
aI20
aI6
aI-13
aI8
aI-12
aI15
aI20
aI-1
aI0
aI5
aI-1
aI7
aI16
aI26
aI-18
aI-1
aI23
aI-3
aI8
aI2
aI11
aI9
aI12
aI-13
aI-11
aI-3
aI11
aI12
aI28
aI9
aI-6
aI-12
aI-8
aI1
aI9
aI9
aI26
aI-6
aI-19
aI20
aI-14
aI7
aI12
aI12
aI-15
aI2
aI5
aI17
aI-19
aI-27
aI1
aI2
aI2
aI12
aI-19
aI-20
aI-23
aI6
aI-1
aI-15
aI31
aI2
aI-6
aI6
aI-5
aI7
aI18
aI6
aI-1
aI-4
aI2
aI-7
aI-22
aI-9
aI-14
aI-3
aI2
aI13
aI-15
aI0
aI10
aI3
aI-8
aI4
aI-1
aI-4
aI-7
aI5
aI-8
aI5
aI4
aI11
aI18
aI-22
aI5
aI-6
aI8
aI7
aI9
aI7
aI-7
aI0
aI4
aI-1
aI13
aI6
aI-3
aI-4
aI25
aI-19
aI10
aI-2
aI6
aI12
aI-14
aI3
aI1
aI-2
aI-32
aI-4
aI10
aI-11
aI5
aI-8
aI-7
aI-2
aI0
aI-2
aI-12
aI-3
aI17
aI16
aI-1
aI-10
aI16
aI-4
aI19
aI1
aI-11
aI13
aI-5
aI-10
aI-32
aI-12
aI-27
aI-2
aI-4
aI-7
aI8
aI18
aI1
aI-4
aI3
aI-1
aI-15
aI-6
aI-4
aI-9
aI3
aI-16
aI-7
aI-4
aI12
aI-3
aI-12
aI-4
aI-12
aI-18
aI15
aI-1
aI10
aI-9
aI-22
aI16
aI-2
aI-16
aI1
aI-12
aI8
aI17
aI-3
aI-8
aI1
aI-24
aI9
aI7
aI-6
aI-3
aI2
aI5
aI25
aI18
aI-9
aI15
aI-5
aI1
aI-26
aI9
aI-14
aI16
aI26
aI6
aI13
aI-5
aI-21
aI15
aI-12
aI-23
aI-16
aI-8
aI-2
aI3
aI-13
aI-12
aI16
aI5
aI20
aI6
aI-15
aI16
aI2
aI21
aI9
aI1
aI-6
aI12
aI-5
aI-11
aI5
aI3
aI4
aI-8
aI-6
aI18
aI13
aI7
aI-6
aI-22
aI12
aI13
aI18
aI-21
aI-1
aI-3
aI14
aI16
aI9
aI11
aI-21
aI0
aI10
aI18
aI4
aI-20
aI8
aI0
aI-10
aI2
aI2
aI21
aI10
aI-1
aI-6
aI-4
aI4
aI18
aI8
aI-22
aI-1
aI-12
aI-31
aI-3
aI-11
aI-5
aI35
aI-6
aI3
aI-16
aI-19
aI9
aI-9
aI-1
aI-6
aI6
aI-4
aI13
aI-1
aI-26
aI-3
aI7
aI-1
aI-2
aI7
aI-19
aI1
aI-3
aI0
aI12
aI10
aI-9
aI-11
aI12
aI-19
aI-3
aI-11
aI-13
aI9
aI-1
aI0
aI-28
aI12
aI-13
aI9
aI7
aI-1
aI-27
aI29
aI2
aI14
aI-12
aI-11
aI8
aI4
aI-11
aI8
aI4
aI-9
aI5
aI15
aI1
aI-1
aI-3
aI2
aI-6
aI-3
aI-3
aI-6
aI11
aI-9
aI-4
aI8
aI-7
aI-17
aI-6
aI-17
aI-11
aI-2
aI5
aI-1
aI-14
aI-10
aI9
aI-13
aI7
aI14
aI12
aI2
aI-2
aI8
aI0
aI-14
aI16
aI-2
aI0
aI18
aI7
aI7
aI11
aI-2
aI-5
aI-9
aI10
aI-1
aI2
aI-4
aI11
aI-5
aI-6
aI-4
aI-11
aI-4
aI-5
aI9
aI8
aI0
aI-10
aI-5
aI14
aI1
aI-11
aI-6
aI5
aI3
aI15
aI-9
aI8
aI-3
aI-10
aI9
aI-6
aI-7
aI3
aI-16
aI0
aI-17
aI16
aI1
aI6
aI-3
aI4
aI10
aI-1
aI-11
aI-4
aI-6
aI-2
aI-13
aI-2
aI17
aI8
aI5
aI0
aI12
aI10
aI-13
aI0
aI1
aI-7
aI-17
aI5
aI5
aI12
aI-4
aI7
aI-2
aI8
aI-2
aI-13
aI18
aI13
aI3
aI14
aI-12
aI-7
aI-7
aI-9
aI-1
aI-6
aI6
aI9
aI2
aI-3
aI-4
aI-8
aI-13
aI-4
aI-17
aI6
aI-6
aI4
aI-1
aI-2
aI-1
aI-18
aI1
aI-7
aI14
aI17
aI13
aI-11
aI-3
aI-3
aI2
aI3
aI0
aI-6
aI18
aI-10
aI-11
aI-4
aI-4
aI2
aI-14
aI2
aI0
aI5
aI-15
aI-8
aI10
aI-8
aI0
aI7
aI-11
aI9
aI20
aI9
aI7
aI-13
aI9
aI-2
aI-2
aI10
aI1
aI-10
aI-4
aI-8
aI2
aI-1
aI-18
aI-4
aI0
aI-1
aI-6
aI-2
aI3
aI3
aI-8
aI8
aI4
aI6
aI13
aI7
aI13
aI8
aI-1
aI1
aI1
aI2
aI19
aI0
aI7
aI3
aI8
aI4
aI5
aI13
aI13
aI3
aI-6
aI2
aI7
aI11
aI-3
aI-2
aI8
aI-6
aI-13
aI-1
aI-3
aI-16
aI-7
aI-8
aI-1
aI18
aI4
aI-7
aI8
aI15
aI20
aI9
aI-11
aI10
aI8
aI9
aI10
aI-10
aI12
aI-6
aI14
aI10
aI-13
aI-16
aI7
aI-4
aI-1
aI4
aI0
aI-12
aI8
aI3
aI1
aI7
aI-4
aI-20
aI-5
aI11
aI-11
aI-12
aI-7
aI-5
aI0
aI-17
aI-2
aI-5
aI2
aI0
aI2
aI0
aI11
aI-11
aI1
aI7
aI-7
aI-4
aI4
aI-2
aI14
aI-7
aI-9
aI17
aI-15
aI6
aI-16
aI-2
aI0
aI8
aI-9
aI3
aI12
aI3
aI2
aI5
aI7
aI-10
aI-9
aI12
aI11
aI10
aI12
aI3
aI0
aI-11
aI-15
aI-2
aI3
aI9
aI0
aI12
aI3
aI4
aI5
aI0
aI7
aI-7
aI2
aI-6
aI5
aI5
aI5
aI4
aI-6
aI-9
aI7
aI-1
aI-3
aI5
aI1
aI8
aI-1
aI7
aI-5
aI-8
aI-14
aI-8
aI3
aI-1
aI7
aI-1
aI-12
aI3
aI-15
aI10
aI-3
aI-11
aI-4
aI-1
aI-5
aI0
aI16
aI-4
aI-8
aI0
aI-8
aI-1
aI4
aI-6
aI9
aI12
aI-9
aI3
aI5
aI3
aI-9
aI-3
aI8
aI12
aI-11
aI3
aI4
aI8
aI9
aI-5
aI9
aI2
aI-3
aI-3
aI-3
aI11
aI-7
aI-1
aI1
aI-2
aI-2
aI-9
aI9
aI-8
aI10
aI-5
aI16
aI12
aI-10
aI12
aI1
aI1
aI9
aI-7
aI16
aI-1
aI8
aI-2
aI-11
aI10
aI-14
aI3
aI-1
aI-7
aI1
aI-2
aI10
aI9
aI-8
aI-6
aI-4
aI0
aI-12
aI9
aI3
aI0
aI1
aI8
aI1
aI-11
aI-9
aI-8
aI-6
aI6
aI-3
aI8
aI-2
aI6
aI5
aI3
aI5
aI-4
aI-6
aI-2
aI-17
aI0
aI2
aI-14
aI4
aI-18
aI3
aI-3
aI-6
aI1
aI-6
aI15
aI1
aI-3
aI-11
aI-6
aI2
aI16
aI7
aI2
aI-4
aI-6
aI-6
aI3
aI-8
aI-9
aI15
aI6
aI-16
aI4
aI-1
aI14
aI7
aI-9
aI11
aI5
aI5
aI-9
aI0
aI12
aI2
aI13
aI6
aI6
aI-8
aI8
aI9
aI1
aI-8
aI17
aI7
aI-2
aI-5
aI15
aI8
aI-2
aI15
aI1
aI-17
aI6
aI0
aI-1
aI-5
aI-5
aI-6
aI20
aI-7
aI15
aI-19
aI-17
aI16
aI9
aI10
aI16
aI12
aI7
aI-14
aI7
aI-5
aI-2
aI-9
aI-10
aI20
aI-5
aI-3
aI3
aI3
aI13
aI-2
aI6
aI-11
aI12
aI-15
aI3
aI-8
aI5
aI6
aI5
aI5
aI13
aI-4
aI3
aI-12
aI4
aI0
aI-1
aI15
aI-12
aI8
aI-9
aI7
aI3
aI1
aI-5
aI-2
aI6
aI6
aI-1
aI-5
aI5
aI-2
aI-12
aI9
aI-11
aI12
aI6
aI-8
aI7
aI14
aI-9
aI-6
aI-16
aI1
aI15
aI-1
aI10
aI2
aI0
aI-3
aI-4
aI-7
aI-4
aI0
aI0
aI-7
aI-7
aI11
aI3
aI-9
aI-3
aI5
aI9
aI-3
aI0
aI-4
aI7
aI5
aI-1
aI-2
aI-2
aI4
aI-13
aI-4
aI-4
aI10
aI-18
aI-8
aI5
aI4
aI-5
aI-6
aI4
aI7
aI-18
aI14
aI-3
aI4
aI-14
aI1
aI-1
aI-11
aI-11
aI-10
aI-8
aI11
aI14
aI0
aI-4
aI-12
aI5
aI-6
aI18
aI3
aI-1
aI-18
aI2
aI7
aI4
aI-1
aI-6
aI-7
aI9
aI-11
aI-4
aI4
aI-6
aI4
aI0
aI4
aI9
aI-10
aI-9
aI-14
aI-6
aI-5
aI5
aI-1
aI12
aI8
aI3
aI-10
aI13
aI-5
aI0
aI8
aI-13
aI-16
aI-8
aI16
aI0
aI1
aI-6
aI15
aI-4
aI-6
aI-7
aI-2
aI-17
aI12
aI0
aI-16
aI8
aI-3
aI-11
aI2
aI0
aI2
aI-4
aI0
aI2
aI5
aI8
aI-4
aI0
aI7
aI17
aI-7
aI-1
aI-8
aI6
aI-14
aI6
aI-15
aI-17
aI-11
aI-4
aI6
aI-5
aI-2
aI-4
aI-13
aI3
aI6
aI-12
aI9
aI-4
aI0
aI-2
aI6
aI8
aI-3
aI13
aI-12
aI0
aI2
aI-7
aI3
aI1
aI-2
aI-3
aI-11
aI17
aI-8
aI1
aI4
aI8
aI-2
aI-20
aI-3
aI5
aI-4
aI5
aI-19
aI0
aI20
aI5
aI7
aI18
aI0
aI-2
aI-12
aI5
aI0
aI11
aI-13
aI0
aI-6
aI8
aI-2
aI-3
aI-4
aI12
aI6
aI7
aI12
aI11
aI-2
aI-15
aI-8
aI6
aI8
aI0
aI13
aI-4
aI12
aI-5
aI-7
aI-11
aI-3
aI1
aI-12
aI12
aI-1
aI8
aI12
aI8
aI13
aI6
aI-3
aI0
aI3
aI11
aI-10
aI-12
aI-9
aI0
aI-4
aI-19
aI8
aI0
aI-12
aI-9
aI3
aI-3
aI2
aI5
aI-2
aI0
aI-1
aI-3
aI1
aI-3
aI-6
aI0
aI-12
aI-18
aI-3
aI-3
aI-2
aI7
aI12
aI-2
aI9
aI-10
aI-8
aI0
aI8
aI-17
aI15
aI4
aI-2
aI3
aI-4
aI15
aI-10
aI11
aI2
aI-4
aI-7
aI-9
aI0
aI-13
aI8
aI0
aI17
aI-2
aI2
aI15
aI0
aI-9
aI12
aI-3
aI-9
aI5
aI-6
aI-10
aI11
aI8
aI-1
aI-3
aI2
aI-9
aI-10
aI-4
aI8
aI1
aI-3
aI-6
aI15
aI9
aI-2
aI2
aI-4
aI3
aI0
aI11
aI-8
aI7
aI-19
aI-17
aI-4
aI-3
aI-3
aI-13
aI1
aI13
aI-12
aI-10
aI6
aI-8
aI-11
aI6
aI0
aI8
aI-1
aI-12
aI-5
aI-15
aI1
aI-15
aI-9
aI8
aI4
aI-1
aI-6
aI-2
aI-4
aI1
aI18
aI13
aI1
aI1
aI-12
aI2
aI2
aI5
aI-14
aI3
aI7
aI-10
aI1
aI4
aI4
aI7
aI-3
aI-1
aI3
aI-14
aI17
aI12
aI8
aI0
aI5
aI-7
aI20
aI5
aI3
aI8
aI-11
aI-7
aI5
aI-3
aI3
aI-13
aI-14
aI-7
aI6
aI16
aI-6
aI7
aI-15
aI-3
aI8
aI-1
aI-1
aI9
aI4
aI19
aI2
aI14
aI7
aI-6
aI-2
aI12
aI8
aI-4
aI2
aI-18
aI-5
aI5
aI5
aI-1
aI14
aI-14
aI5
aI-7
aI-1
aI1
aI-10
aI-7
aI-4
aI-19
aI7
aI12
aI18
aI16
aI-3
aI-5
aI5
aI-12
aI-9
aI19
aI-6
aI3
aI2
aI3
aI-2
aI2
aI-8
aI8
aI-3
aI8
aI0
aI-13
aI9
aI7
aI8
aI-11
aI5
aI7
aI0
aI-6
aI-12
aI1
aI3
aI-6
aI-3
aI2
aI-11
aI5
aI-8
aI13
aI0
aI-3
aI7
aI0
aI-6
aI-11
aI-2
aI6
aI7
aI0
aI17
aI-3
aI2
aI-14
aI-13
aI-13
aI-19
aI-3
aI13
aI-5
aI3
aI-2
aI-8
aI0
aI-5
aI5
aI1
aI-11
aI-2
aI9
aI-5
aI4
aI-18
aI-17
aI3
aI5
aI10
aI9
aI6
aI11
aI-5
aI-10
aI5
aI-4
aI16
aI-7
aI4
aI-3
aI-6
aI-4
aI16
aI13
aI-3
aI-6
aI4
aI-13
aI-9
aI16
aI9
aI7
aI12
aI0
aI-1
aI8
aI3
aI-14
aI-1
aI12
aI-4
aI11
aI0
aI1
aI-6
aI-3
aI-8
aI-12
aI6
aI-2
aI1
aI2
aI-17
aI3
aI2
aI-4
aI5
aI11
aI10
aI6
aI-2
aI-1
aI0
aI8
aI1
aI4
aI1
aI-8
aI5
aI-10
aI7
aI-8
aI-8
aI5
aI19
aI-5
aI-1
aI11
aI-2
aI-11
aI0
aI10
aI-13
aI8
aI-18
aI12
aI-12
aI16
aI2
aI-14
aI0
aI4
aI-9
aI-11
aI6
aI6
aI-12
aI4
aI-8
aI-11
aI-8
aI3
aI6
aI-14
aI-1
aI-2
aI13
aI-16
aI10
aI-8
aI17
aI-1
aI3
aI9
aI13
aI-16
aI7
aI-5
aI-8
aI-16
aI-6
aI14
aI-9
aI4
aI1
aI-12
aI-3
aI0
aI10
aI2
aI-1
aI-4
aI-1
aI9
aI-3
aI2
aI-9
aI1
aI-4
aI-7
aI1
aI-5
aI0
aI-16
aI11
aI0
aI-5
aI-1
aI-7
aI-3
aI11
aI-9
aI17
aI-2
aI-4
aI-10
aI1
aI-2
aI2
aI4
aI-7
aI-1
aI-13
aI-2
aI-14
aI5
aI15
aI7
aI-20
aI3
aI19
aI-1
aI5
aI3
aI16
aI-2
aI-8
aI11
aI1
aI14
aI-4
aI-5
aI-2
aI9
aI-5
aI2
aI-1
aI3
aI-4
aI-8
aI7
aI2
aI-9
aI-3
aI-5
aI4
aI-2
aI1
aI3
aI-3
aI3
aI12
aI-5
aI0
aI-11
aI5
aI-3
aI-16
aI8
aI-18
aI4
aI-6
aI7
aI-11
aI6
aI0
aI1
aI-1
aI-5
aI3
aI0
aI-2
aI4
aI-12
aI10
aI5
aI-15
aI0
aI-1
aI-5
aI-8
aI7
aI8
aI-5
aI-2
aI2
aI5
aI-7
aI-3
aI2
aI2
aI9
aI17
aI6
aI0
aI9
aI-3
aI-2
aI0
aI-16
aI4
aI-10
aI1
aI20
aI15
aI7
aI13
aI-2
aI5
aI-6
aI-12
aI-5
aI-12
aI5
aI8
aI7
aI-14
aI-1
aI1
aI-9
aI-6
aI6
aI-6
aI-11
aI-4
aI1
aI10
aI2
aI-11
aI1
aI-13
aI-1
aI1
aI-10
aI6
aI-1
aI-11
aI4
aI-17
aI15
aI10
aI-11
aI5
aI4
aI-12
aI-12
aI6
aI8
aI2
aI4
aI16
aI-13
aI3
aI12
aI2
aI-19
aI-3
aI-9
aI10
aI2
aI3
aI3
aI14
aI-6
aI-9
aI-13
aI-5
aI1
aI0
aI-5
aI-17
aI-7
aI0
aI-8
aI-3
aI-11
aI-6
aI4
aI5
aI5
aI0
aI13
aI-3
aI-2
aI-3
aI8
aI-6
aI12
aI-6
aI-1
aI-3
aI10
aI11
aI-8
aI-8
aI0
aI6
aI-4
aI-9
aI7
aI5
aI2
aI2
aI-13
aI3
aI6
aI10
aI-3
aI2
aI-3
aI-1
aI15
aI8
aI-5
aI-14
aI5
aI0
aI-2
aI-7
aI18
aI-4
aI-12
aI-6
aI-8
aI-18
aI-1
aI-11
aI0
aI-6
aI-8
aI-7
aI-9
aI-2
aI-6
aI11
aI11
aI3
aI3
aI-6
aI-2
aI-2
aI12
aI5
aI0
aI-15
aI0
aI6
aI4
aI0
aI3
aI-4
aI2
aI2
aI-5
aI6
aI10
aI-1
aI7
aI3
aI1
aI0
aI7
aI3
aI-5
aI14
aI-1
aI5
aI-1
aI1
aI-20
aI3
aI-11
aI7
aI12
aI-18
aI-6
aI1
aI-18
aI-8
aI13
aI-7
aI8
aI-8
aI8
aI-7
aI-3
aI-3
aI-5
aI-7
aI1
aI-7
aI-11
aI6
aI-4
aI7
aI-13
aI-19
aI-2
aI-13
aI-12
aI17
aI6
aI14
aI9
aI9
aI-13
aI-9
aI-1
aI-15
aI-7
aI10
aI-10
aI-4
aI-2
aI7
aI2
aI12
aI1
aI-4
aI-10
aI5
aI-8
aI-8
aI5
aI1
aI1
aI1
aI3
aI-2
aI4
aI-2
aI3
aI3
aI7
aI0
aI2
aI-4
aI-9
aI1
aI-7
aI12
aI4
aI-7
aI-6
aI1
aI1
aI10
aI8
aI18
aI4
aI5
aI9
aI-1
aI9
aI-13
aI9
aI13
aI-2
aI5
aI1
aI-10
aI-10
aI8
aI-17
aI-1
aI11
aI18
aI-13
aI-8
aI-4
aI-7
aI-4
aI-5
aI14
aI-13
aI-5
aI-13
aI6
aI-13
aI-4
aI10
aI-11
aI4
aI6
aI-2
aI-5
aI16
aI-2
aI10
aI-2
aI-1
aI-2
aI14
aI-4
aI-6
aI-2
aI-4
aI0
aI4
aI-3
aI-13
aI-16
aI7
aI8
aI-9
aI4
aI9
aI9
aI0
aI15
aI14
aI-2
aI5
aI-9
aI-7
aI0
aI9
aI9
aI16
aI1
aI18
aI13
aI11
aI3
aI-9
aI-2
aI-19
aI4
aI5
aI15
aI8
aI10
aI4
aI-4
aI16
aI-10
aI0
aI1
aI1
aI6
aI5
aI-9
aI5
aI0
aI9
aI-3
aI7
aI-13
aI0
aI4
aI-4
aI-6
aI-11
aI0
aI17
aI17
aI4
aI-18
aI-15
aI4
aI11
aI9
aI-7
aI15
aI-3
aI0
aI8
aI-12
aI13
aI-2
aI9
aI16
aI7
aI9
aI-10
aI-1
aI10
aI-11
aI-8
aI-19
aI11
aI0
aI3
aI1
aI-3
aI0
aI-8
aI2
aI-6
aI2
aI-3
aI7
aI5
aI12
aI6
aI14
aI-6
aI2
aI-5
aI-2
aI-1
aI1
aI-8
aI-2
aI11
aI-7
aI-3
aI-1
aI4
aI16
aI1
aI-2
aI0
aI-12
aI7
aI3
aI18
aI1
aI-1
aI1
aI-8
aI-15
aI-1
aI3
aI-7
aI-11
aI-3
aI5
aI6
aI8
aI0
aI-8
aI-12
aI2
aI4
aI-5
aI5
aI4
aI-2
aI-5
aI-11
aI15
aI-6
aI12
aI13
aI7
aI-9
aI-2
aI-1
aI14
aI-6
aI11
aI-2
aI-3
aI10
aI4
aI15
aI-17
aI-1
aI13
aI-4
aI6
aI12
aI-6
aI1
aI-3
aI3
aI-4
aI-3
aI-10
aI17
aI7
aI-17
aI-1
aI1
aI-2
aI-4
aI-7
aI7
aI-7
aI-17
aI-4
aI-8
aI4
aI10
aI1
aI1
aI-5
aI-11
aI-2
aI-3
aI4
aI7
aI19
aI-17
aI6
aI-6
aI-13
aI-5
aI1
aI9
aI-1
aI-8
aI10
aI5
aI1
aI-14
aI-2
aI20
aI17
aI7
aI-9
aI11
aI1
aI-2
aI-14
aI-8
aI7
aI8
aI4
aI11
aI-2
aI16
aI14
aI4
aI-2
aI14
aI2
aI-8
aI-7
aI-5
aI-2
aI-6
aI-1
aI7
aI-13
aI6
aI0
aI-13
aI12
aI1
aI12
aI6
aI-13
aI14
aI-10
aI0
aI8
aI-4
aI-3
aI4
aI5
aI12
aI2
aI-11
aI5
aI-11
aI-3
aI3
aI-9
aI-7
aI-1
aI-4
aI-11
aI11
aI-13
aI-4
aI4
aI18
aI-4
aI-8
aI-1
aI-9
aI-11
aI-2
aI-9
aI2
aI2
aI-4
aI-8
aI0
aI-1
aI3
aI-12
aI6
aI-1
aI-5
aI6
aI13
aI-7
aI-3
aI-7
aI8
aI1
aI1
aI13
aI9
aI11
aI6
aI11
aI9
aI-9
aI-8
aI9
aI-1
aI0
aI-14
aI6
aI0
aI-5
aI5
aI4
aI-1
aI9
aI10
aI-11
aI-1
aI2
aI10
aI8
aI-5
aI13
aI-5
aI8
aI-9
aI8
aI-1
aI-5
aI6
aI2
aI-9
aI-13
aI1
aI14
aI7
aI16
aI16
aI-13
aI-5
aI11
aI14
aI-5
aI3
aI-9
aI-13
aI-3
aI-2
aI-8
aI-6
aI18
aI-4
aI7
aI0
aI2
aI-4
aI11
aI-13
aI1
aI6
aI17
aI4
aI-1
aI-3
aI7
aI8
aI-7
aI4
aI7
aI12
aI-13
aI10
aI13
aI-12
aI16
aI-8
aI-2
aI-18
aI-6
aI4
aI-1
aI13
aI9
aI-8
aI-8
aI-4
aI15
aI5
aI-1
aI5
aI-15
aI-14
aI8
aI-12
aI-6
aI2
aI2
aI-4
aI5
aI11
aI20
aI-6
aI-4
aI-1
aI-12
aI-5
aI11
aI14
aI2
aI-5
aI6
aI0
aI4
aI-7
aI-19
aI0
aI-9
aI-4
aI-4
aI-10
aI-6
aI-1
aI1
aI14
aI16
aI-16
aI-11
aI-10
aI5
aI3
aI-17
aI13
aI9
aI5
aI17
aI0
aI4
aI6
aI-1
aI1
aI11
aI1
aI2
aI10
aI-9
aI-4
aI20
aI-6
aI-16
aI2
aI19
aI-4
aI-5
aI5
aI-18
aI17
aI9
aI-1
aI12
aI6
aI2
aI-5
aI7
aI5
aI-6
aI-1
aI2
aI8
aI4
aI6
aI-4
aI5
aI7
aI-11
aI-10
aI-18
aI-13
aI10
aI10
aI6
aI-4
aI-3
aI-3
aI11
aI-1
aI10
aI7
aI-3
aI-14
aI14
aI5
aI-3
aI-8
aI2
aI-2
aI-15
aI-9
aI8
aI16
aI-6
aI5
aI-3
aI5
aI-10
aI-13
aI-6
aI-5
aI11
aI-7
aI-1
aI0
aI-4
aI-5
aI1
aI-2
aI12
aI6
aI1
aI-3
aI8
aI16
aI4
aI-2
aI-14
aI5
aI8
aI8
aI0
aI12
aI-17
aI4
aI2
aI2
aI-1
aI1
aI6
aI-6
aI8
aI-5
aI10
aI7
aI1
aI-5
aI16
aI5
aI-1
aI-15
aI-3
aI20
aI15
aI-3
aI4
aI3
aI15
aI10
aI0
aI6
aI6
aI6
aI4
aI-5
aI-1
aI6
aI-5
aI0
aI2
aI13
aI-1
aI0
aI-6
aI-6
aI-11
aI-19
aI-16
aI2
aI-1
aI-19
aI6
aI-11
aI2
aI-3
aI0
aI5
aI7
aI-6
aI11
aI15
aI-2
aI-11
aI9
aI0
aI-5
aI-5
aI-18
aI7
aI-2
aI4
aI-10
aI-3
aI5
aI-11
aI7
aI-2
aI-7
aI2
aI-11
aI-18
aI-13
aI7
aI1
aI-1
aI-16
aI-5
aI-11
aI-10
aI14
aI-3
aI-5
aI8
aI12
aI-2
aI-4
aI1
aI1
aI5
aI-9
aI0
aI-13
aI-2
aI4
aI4
aI8
aI12
aI-1
aI-2
aI9
aI-6
aI-5
aI5
aI-1
aI14
aI-11
aI-7
aI-10
aI-15
aI3
aI11
aI-12
aI-1
aI17
aI-8
aI20
aI2
aI18
aI11
aI8
aI-10
aI0
aI11
aI6
aI11
aI13
aI-9
aI-4
aI2
aI-2
aI1
aI10
aI-13
aI-10
aI5
aI15
aI-2
aI11
aI10
aI2
aI-6
aI-6
aI-7
aI10
aI4
aI-11
aI-9
aI2
aI10
aI-7
aI-1
aI-10
aI13
aI12
aI-6
aI3
aI3
aI-17
aI2
aI3
aI2
aI-11
aI12
aI2
aI14
aI5
aI18
aI-13
aI-10
aI2
aI14
aI-9
aI-2
aI-13
aI-11
aI16
aI-7
aI4
aI-2
aI1
aI0
aI4
aI4
aI-3
aI7
aI-3
aI16
aI0
aI8
aI1
aI3
aI13
aI0
aI-2
aI1
aI-8
aI6
aI18
aI-6
aI-11
aI-9
aI-14
aI-5
aI-12
aI1
aI4
aI12
aI-5
aI2
aI3
aI13
aI-4
aI2
aI-1
aI7
aI-2
aI2
aI6
aI-19
aI3
aI4
aI-8
aI-4
aI8
aI-6
aI-10
aI13
aI13
aI-4
aI-13
aI11
aI3
aI-2
aI0
aI16
aI7
aI-7
aI0
aI4
aI7
aI15
aI2
aI-1
aI-11
aI11
aI3
aI14
aI4
aI-6
aI7
aI13
aI8
aI4
aI-5
aI10
aI1
aI13
aI-12
aI-10
aI3
aI-3
aI-5
aI2
aI13
aI18
aI-18
aI-1
aI-6
aI2
aI0
aI3
aI3
aI1
aI-9
aI-7
aI-4
aI-16
aI8
aI-9
aI13
aI2
aI10
aI-12
aI-17
aI8
aI16
aI-3
aI-1
aI-14
aI-12
aI9
aI-15
aI-15
aI16
aI3
aI-12
aI9
aI0
aI-6
aI0
aI-13
aI-11
aI0
aI-1
aI7
aI-18
aI-6
aI-6
aI13
aI13
aI-4
aI-1
aI-6
aI-10
aI-2
aI-1
aI-5
aI-1
aI-9
aI-7
aI-4
aI-2
aI-9
aI-17
aI-12
aI-1
aI-6
aI1
aI10
aI7
aI9
aI-7
aI-2
aI-3
aI12
aI-14
aI-4
aI15
aI-11
aI1
aI-11
aI2
aI10
aI-2
aI-3
aI-1
aI8
aI4
aI16
aI-1
aI4
aI6
aI2
aI-18
aI-5
aI0
aI-2
aI0
aI7
aI3
aI12
aI-7
aI12
aI-10
aI0
aI11
aI7
aI-18
aI-14
aI-4
aI10
aI-9
aI7
aI-13
aI-1
aI2
aI0
aI8
aI3
aI3
aI16
aI-11
aI2
aI-7
aI-18
aI3
aI-12
aI2
aI11
aI12
aI-1
aI-1
aI1
aI6
aI6
aI5
aI-8
aI1
aI1
aI-3
aI2
aI5
aI11
aI8
aI-5
aI12
aI2
aI-6
aI-4
aI-2
aI-7
aI18
aI3
aI-11
aI-13
aI-2
aI-4
aI4
aI-8
aI-9
aI6
aI0
aI-9
aI-11
aI16
aI-1
aI-18
aI-14
aI16
aI11
aI1
aI1
aI10
aI11
aI-20
aI-13
aI3
aI6
aI-2
aI-7
aI7
aI0
aI4
aI1
aI-11
aI3
aI-9
aI-16
aI-8
aI9
aI-12
aI9
aI-19
aI-16
aI13
aI6
aI1
aI1
aI2
aI9
aI0
aI0
aI-12
aI11
aI12
aI-2
aI6
aI3
aI-2
aI13
aI11
aI0
aI-6
aI14
aI13
aI1
aI19
aI-11
aI-16
aI-11
aI-3
aI0
aI-8
aI-1
aI8
aI13
aI-12
aI-18
aI0
aI6
aI-12
aI1
aI-1
aI-7
aI-7
aI-4
aI2
aI1
aI2
aI0
aI7
aI-12
aI16
aI4
aI-3
aI-8
aI-2
aI13
aI9
aI9
aI8
aI2
aI1
aI4
aI16
aI-2
aI6
aI11
aI18
aI-2
aI-11
aI-17
aI-13
aI-5
aI-1
aI3
aI-3
aI6
aI2
aI16
aI11
aI11
aI0
aI-16
aI-1
aI-12
aI-4
aI16
aI10
aI-4
aI-3
aI5
aI-1
aI-6
aI0
aI9
aI-5
aI11
aI4
aI2
aI-10
aI-11
aI1
aI-12
aI17
aI-10
aI-7
aI-7
aI-1
aI2
aI-5
aI2
aI-8
aI-18
aI9
aI-4
aI7
aI-9
aI-5
aI-1
aI1
aI12
aI-8
aI-2
aI10
aI-8
aI11
aI19
aI-10
aI-14
aI5
aI7
aI3
aI-15
aI-10
aI10
aI8
aI4
aI-16
aI13
aI3
aI-10
aI10
aI17
aI16
aI-6
aI6
aI10
aI-2
aI4
aI-13
aI-1
aI1
aI-2
aI3
aI2
aI15
aI-3
aI1
aI-8
aI19
aI-2
aI7
aI3
aI-6
aI3
aI6
aI-10
aI1
aI11
aI-15
aI-12
aI16
aI-8
aI1
aI0
aI-5
aI-14
aI-10
aI-9
aI8
aI13
aI0
aI-7
aI5
aI-5
aI3
aI-3
aI6
aI18
aI-6
aI0
aI-10
aI-13
aI7
aI8
aI2
aI-9
aI-7
aI-4
aI8
aI1
aI-3
aI2
aI-2
aI-3
aI-3
aI1
aI17
aI-10
aI2
aI-3
aI1
aI0
aI9
aI9
aI15
aI1
aI-2
aI1
aI5
aI6
aI8
aI9
aI0
aI-5
aI13
aI9
aI-9
aI4
aI0
aI5
aI-10
aI15
aI4
aI-4
aI0
aI8
aI-7
aI-1
aI10
aI1
aI-3
aI4
aI-4
aI2
aI-15
aI-11
aI-7
aI-2
aI6
aI17
aI-6
aI-5
aI-6
aI-7
aI-10
aI-12
aI-3
aI2
aI6
aI-15
aI-8
aI5
aI10
aI6
aI10
aI-10
aI-11
aI5
aI6
aI7
aI-6
aI9
aI-14
aI5
aI-4
aI-3
aI-1
aI13
aI-4
aI18
aI4
aI11
aI-15
aI-18
aI10
aI-12
aI5
aI-2
aI-14
aI-1
aI6
aI11
aI-3
aI11
aI-3
aI-5
aI4
aI-1
aI-1
aI14
aI4
aI-6
aI-3
aI7
aI10
aI-2
aI-6
aI9
aI-12
aI9
aI-2
aI-4
aI11
aI-10
aI8
aI1
aI6
aI-4
aI-2
aI-1
aI9
aI-5
aI-3
aI10
aI12
aI-6
aI-15
aI12
aI-3
aI-5
aI-2
aI-7
aI-7
aI8
aI13
aI-9
aI-1
aI4
aI18
aI5
aI14
aI-5
aI-16
aI0
aI-9
aI5
aI-3
aI-9
aI13
aI-9
aI10
aI4
aI4
aI1
aI17
aI-18
aI-5
aI-12
aI3
aI-15
aI15
aI-1
aI13
aI-5
aI1
aI-4
aI-15
aI3
aI8
aI0
aI10
aI7
aI0
aI-9
aI-16
aI16
aI-4
aI7
aI5
aI2
aI-3
aI-3
aI-10
aI0
aI-1
aI17
aI11
aI0
aI2
aI-10
aI-2
aI-12
aI9
aI0
aI4
aI8
aI-4
aI-5
aI-1
aI3
aI7
aI-3
aI14
aI4
aI7
aI4
aI10
aI9
aI9
aI-10
aI-10
aI9
aI8
aI0
aI3
aI10
aI8
aI-7
aI7
aI10
aI7
aI-8
aI-6
aI-4
aI1
aI3
aI-2
aI-9
aI-1
aI-3
aI6
aI-1
aI-6
aI-8
aI3
aI7
aI-1
aI10
aI-10
aI-10
aI5
aI-6
aI4
aI2
aI-8
aI-10
aI7
aI4
aI-6
aI2
aI0
aI7
aI8
aI-10
aI-7
aI7
aI0
aI-8
aI0
aI10
aI6
aI6
aI-9
aI-4
aI5
aI-4
aI10
aI10
aI-7
aI-3
aI8
aI0
aI0
aI10
aI9
aI-10
aI8
aI4
aI-2
aI3
aI6
aI-5
aI-9
aI2
aI9
aI-3
aI9
aI-5
aI6
aI0
aI1
aI-1
aI-7
aI10
aI-10
aI5
aI-3
aI6
aI6
aI9
aI5
aI-10
aI9
aI-6
aI-1
aI-7
aI0
aI-1
aI4
aI0
aI-7
aI-7
aI0
aI4
aI-3
aI-6
aI-2
aI1
aI-6
aI6
aI9
aI-10
aI3
aI-8
aI9
aI-10
aI8
aI7
aI3
aI5
aI4
aI-2
aI-5
aI9
aI-1
aI-9
aI5
aI-6
aI6
aI3
aI2
aI2
aI-1
aI-6
aI8
aI-5
aI-4
aI-9
aI0
aI0
aI-9
aI2
aI-6
aI10
aI4
aI7
aI-4
aI-2
aI8
aI-6
aI9
aI-1
aI-3
aI-4
aI8
aI0
aI1
aI10
aI1
aI-3
aI-9
aI4
aI10
aI-6
aI-4
aI1
aI-3
aI-5
aI-10
aI-4
aI-1
aI-8
aI-4
aI-4
aI4
aI-10
aI10
aI-2
aI-4
aI9
aI0
aI4
aI-3
aI0
aI5
aI-10
aI9
aI6
aI-7
aI1
aI-5
aI-6
aI1
aI10
aI-3
aI-5
aI9
aI-9
aI-6
aI-7
aI10
aI-3
aI8
aI1
aI10
aI-5
aI6
aI-5
aI8
aI5
aI-2
aI-8
aI7
aI4
aI5
aI0
aI-7
aI-9
aI3
aI-2
aI-2
aI8
aI7
aI8
aI-8
aI2
aI10
aI-1
aI-7
aI9
aI2
aI0
aI-3
aI-9
aI-7
aI-1
aI-5
aI9
aI-8
aI-9
aI2
aI2
aI-9
aI-10
aI10
aI-6
aI7
aI-9
aI-3
aI-4
aI0
aI-1
aI-7
aI2
aI5
aI-7
aI-8
aI-7
aI0
aI0
aI9
aI1
aI-9
aI9
aI5
aI-6
aI-7
aI-7
aI1
aI-8
aI-4
aI-6
aI-8
aI7
aI-5
aI-10
aI3
aI-10
aI3
aI-4
aI-2
aI1
aI-2
aI6
aI-1
aI-8
aI7
aI0
aI4
aI-7
aI2
aI9
aI10
aI-2
aI-6
aI-9
aI9
aI3
aI5
aI-7
aI0
aI-2
aI2
aI6
aI8
aI-7
aI-3
aI1
aI-7
aI-6
aI8
aI-7
aI-1
aI-6
aI-6
aI5
aI9
aI8
aI-3
aI-8
aI-10
aI0
aI9
aI-6
aI-4
aI7
aI-10
aI6
aI-2
aI-1
aI8
aI-3
aI1
aI5
aI-2
aI9
aI-4
aI-1
aI7
aI10
aI-2
aI5
aI-9
aI-6
aI-8
aI9
aI-1
aI10
aI-4
aI-5
aI2
aI8
aI-3
aI5
aI-7
aI1
aI-3
aI1
aI-9
aI-7
aI-1
aI-7
aI6
aI-9
aI2
aI-6
aI3
aI-9
aI0
aI-5
aI-10
aI-10
aI7
aI-7
aI-7
aI9
aI6
aI2
aI-9
aI9
aI-6
aI7
aI5
aI-9
aI10
aI10
aI-8
aI6
aI3
aI-7
aI2
aI-10
aI-2
aI-8
aI-2
aI-8
aI-3
aI2
aI-3
aI-4
aI8
aI4
aI7
aI0
aI1
aI0
aI10
aI7
aI-7
aI4
aI-4
aI3
aI10
aI8
aI-8
aI0
aI9
aI7
aI-2
aI2
aI-8
aI4
aI-9
aI3
aI5
aI8
aI-2
aI-7
aI2
aI-2
aI-2
aI-9
aI-3
aI0
aI-4
aI-6
aI10
aI7
aI6
aI9
aI-1
aI8
aI9
aI-4
aI6
aI-10
aI6
aI0
aI-5
aI1
aI-3
aI-1
aI0
aI3
aI-3
aI7
aI-7
aI5
aI1
aI8
aI7
aI4
aI4
aI2
aI-1
aI-9
aI5
aI-1
aI6
aI3
aI6
aI9
aI9
aI0
aI10
aI7
aI1
aI-2
aI3
aI1
aI-4
aI-4
aI-1
aI-8
aI0
aI5
aI9
aI-10
aI-3
aI-5
aI7
aI-3
aI-9
aI3
aI4
aI1
aI2
aI-8
aI-1
aI0
aI-4
aI1
aI-3
aI7
aI-6
aI-6
aI5
aI1
aI6
aI5
aI9
aI-3
aI-5
aI9
aI10
aI5
aI3
aI2
aI-7
aI-9
aI-7
aI-1
aI9
aI0
aI0
aI3
aI-3
aI-10
aI4
aI-3
aI-1
aI-3
aI2
aI-2
aI4
aI0
aI-9
aI-2
aI-1
aI2
aI3
aI-6
aI-5
aI1
aI-10
aI-1
aI-10
aI-6
aI1
aI3
aI7
aI-4
aI8
aI-7
aI-5
aI-2
aI9
aI5
aI-4
aI1
aI-2
aI4
aI6
aI-3
aI6
aI-1
aI-9
aI3
aI-3
aI8
aI-9
aI-3
aI3
aI1
aI7
aI8
aI-9
aI10
aI-1
aI9
aI-6
aI3
aI-4
aI4
aI-8
aI2
aI-8
aI-3
aI-6
aI7
aI8
aI-8
aI-5
aI4
aI4
aI10
aI-1
aI-5
aI2
aI-7
aI3
aI3
aI5
aI10
aI0
aI0
aI4
aI-5
aI-7
aI-6
aI-3
aI6
aI5
aI5
aI10
aI6
aI-8
aI8
aI7
aI7
aI9
aI-6
aI-3
aI-10
aI10
aI-10
aI-5
aI-7
aI10
aI7
aI6
aI9
aI4
aI-7
aI-7
aI9
aI5
aI4
aI6
aI0
aI-9
aI-9
aI-9
aI-3
aI10
aI-4
aI-7
aI-7
aI-10
aI-8
aI-5
aI-7
aI-1
aI-8
aI5
aI-5
aI7
aI3
aI7
aI3
aI8
aI5
aI-7
aI-1
aI9
aI10
aI-4
aI-8
aI-3
aI10
aI5
aI-7
aI7
aI-1
aI-9
aI6
aI-1
aI8
aI7
aI-2
aI5
aI7
aI2
aI3
aI-9
aI9
aI7
aI-3
aI-7
aI3
aI1
aI9
aI-6
aI-5
aI-8
aI6
aI-8
aI-5
aI-10
aI3
aI-2
aI5
aI10
aI3
aI1
aI9
aI-2
aI-10
aI9
aI-3
aI2
aI1
aI-4
aI-2
aI-3
aI1
aI1
aI-5
aI-2
aI-5
aI1
aI-10
aI10
aI8
aI-9
aI3
aI-2
aI1
aI2
aI3
aI2
aI8
aI-3
aI5
aI2
aI-2
aI-8
aI7
aI-9
aI-5
aI10
aI1
aI1
aI4
aI5
aI1
aI9
aI1
aI-1
aI-1
aI-3
aI-6
aI-10
aI2
aI9
aI-2
aI7
aI-5
aI-5
aI3
aI9
aI1
aI10
aI6
aI6
aI-8
aI5
aI-6
aI8
aI2
aI-6
aI0
aI1
aI2
aI3
aI9
aI-5
aI8
aI10
aI-7
aI4
aI8
aI2
aI-7
aI-6
aI-8
aI-3
aI9
aI-7
aI5
aI2
aI0
aI-8
aI-7
aI-1
aI3
aI8
aI-2
aI6
aI-6
aI-4
aI7
aI-3
aI-7
aI4
aI-2
aI6
aI7
aI6
aI-5
aI2
aI-9
aI-8
aI-3
aI-4
aI-10
aI0
aI-6
aI-10
aI7
aI-3
aI1
aI3
aI7
aI0
aI4
aI-1
aI0
aI3
aI-6
aI7
aI-2
aI-4
aI8
aI-8
aI-9
aI-1
aI-3
aI4
aI-8
aI-8
aI8
aI-7
aI-3
aI-7
aI8
aI9
aI1
aI-8
aI-3
aI-8
aI8
aI8
aI6
aI10
aI-3
aI-7
aI3
aI-6
aI-8
aI-2
aI-7
aI10
aI-4
aI-2
aI-9
aI10
aI0
aI-6
aI-4
aI-7
aI-2
aI6
aI-2
aI-7
aI2
aI-4
aI4
aI6
aI-1
aI-5
aI1
aI-9
aI-5
aI6
aI2
aI-3
aI-7
aI3
aI-8
aI-8
aI-4
aI2
aI-9
aI-2
aI-1
aI0
aI7
aI3
aI7
aI6
aI-3
aI6
aI-2
aI1
aI-7
aI-7
aI-2
aI9
aI0
aI1
aI-1
aI3
aI-7
aI-9
aI-10
aI-2
aI-10
aI-9
aI-10
aI6
aI5
aI-1
aI-10
aI10
aI-7
aI0
aI-5
aI-6
aI-5
aI-4
aI-6
aI-10
aI6
aI10
aI-10
aI6
aI-4
aI-10
aI8
aI7
aI6
aI-6
aI5
aI6
aI-3
aI6
aI-5
aI3
aI-8
aI-3
aI-2
aI3
aI0
aI4
aI-5
aI-3
aI4
aI-5
aI3
aI-4
aI-10
aI1
aI0
aI-3
aI4
aI3
aI-3
aI2
aI2
aI-4
aI-3
aI4
aI-6
aI0
aI-4
aI7
aI3
aI3
aI-5
aI-9
aI0
aI6
aI5
aI7
aI-7
aI1
aI-5
aI9
aI10
aI-2
aI1
aI9
aI0
aI8
aI1
aI-6
aI7
aI-10
aI-10
aI-10
aI9
aI1
aI4
aI-10
aI-4
aI-6
aI-8
aI2
aI1
aI-8
aI-7
aI1
aI10
aI2
aI-10
aI7
aI10
aI3
aI4
aI-2
aI4
aI-3
aI-9
aI1
aI2
aI7
aI-7
aI-7
aI8
aI7
aI6
aI5
aI7
aI-8
aI6
aI9
aI6
aI-10
aI4
aI3
aI-10
aI1
aI-4
aI8
aI-8
aI4
aI-3
aI-1
aI10
aI4
aI10
aI-8
aI5
aI-3
aI-6
aI2
aI3
aI-10
aI-2
aI-7
aI-8
aI3
aI-10
aI10
aI10
aI-7
aI10
aI5
aI-9
aI6
aI-3
aI-3
aI-6
aI9
aI1
aI8
aI-7
aI-3
aI-1
aI-10
aI-3
aI-9
aI-8
aI-7
aI-4
aI2
aI-7
aI10
aI3
aI-1
aI1
aI7
aI2
aI-10
aI-10
aI-1
aI-5
aI8
aI1
aI4
aI-2
aI7
aI-5
aI3
aI-10
aI-10
aI-6
aI2
aI0
aI-10
aI8
aI8
aI2
aI-1
aI-2
aI2
aI-3
aI0
aI-1
aI10
aI6
aI-5
aI3
aI5
aI5
aI-8
aI10
aI-3
aI-1
aI-6
aI-9
aI5
aI-6
aI0
aI-8
aI8
aI-7
aI-1
aI3
aI-9
aI1
aI-7
aI-6
aI-10
aI-1
aI-9
aI-1
aI-10
aI-2
aI8
aI-2
aI-3
aI7
aI-9
aI-10
aI6
aI4
aI2
aI4
aI-1
aI9
aI2
aI4
aI-6
aI-1
aI-3
aI-1
aI-5
aI-7
aI-6
aI-6
aI7
aI6
aI-8
aI-4
aI-10
aI3
aI5
aI2
aI-2
aI7
aI-5
aI2
aI-4
aI2
aI-8
aI-10
aI-6
aI-8
aI0
aI-5
aI3
aI-9
aI-5
aI0
aI9
aI-7
aI-6
aI2
aI-8
aI9
aI1
aI-10
aI-5
aI8
aI4
aI-7
aI-4
aI4
aI-9
aI-5
aI-1
aI-3
aI5
aI4
aI9
aI-8
aI-5
aI-9
aI-9
aI-1
aI8
aI5
aI10
aI5
aI-9
aI10
aI7
aI4
aI-7
aI-3
aI-2
aI3
aI10
aI-10
aI-6
aI10
aI3
aI1
aI-3
aI-3
aI-1
aI-5
aI10
aI1
aI9
aI-8
aI6
aI3
aI-4
aI6
aI-5
aI6
aI0
aI6
aI-7
aI10
aI10
aI6
aI-8
aI4
aI-2
aI5
aI6
aI-2
aI10
aI6
aI7
aI-4
aI10
aI-7
aI7
aI-2
aI-7
aI-8
aI0
aI7
aI7
aI-8
aI-1
aI2
aI-10
aI-6
aI-7
aI-8
aI-1
aI4
aI7
aI5
aI-7
aI10
aI-9
aI-6
aI-4
aI6
aI-1
aI0
aI8
aI0
aI-10
aI8
aI2
aI-5
aI4
aI5
aI-9
aI-10
aI2
aI-7
aI2
aI9
aI-9
aI0
aI-5
aI-5
aI-4
aI-3
aI1
aI-9
aI-5
aI-2
aI-9
aI-4
aI-3
aI-6
aI-2
aI-3
aI7
aI5
aI3
aI8
aI-6
aI8
aI-7
aI1
aI-5
aI-2
aI0
aI0
aI-3
aI2
aI-3
aI4
aI4
aI7
aI-9
aI-3
aI1
aI-8
aI-4
aI-4
aI-9
aI-10
aI2
aI-8
aI-2
aI-3
aI10
aI10
aI6
aI-4
aI-8
aI-7
aI-5
aI-5
aI0
aI4
aI5
aI9
aI3
aI9
aI-4
aI1
aI-10
aI6
aI3
aI10
aI-2
aI-5
aI-5
aI-5
aI5
aI1
aI5
aI-9
aI-1
aI1
aI3
aI10
aI-6
aI-5
aI-9
aI-10
aI3
aI10
aI7
aI3
aI4
aI-3
aI-6
aI6
aI5
aI4
aI7
aI2
aI-10
aI5
aI5
aI-5
aI-1
aI8
aI-7
aI7
aI-10
aI-3
aI4
aI-1
aI4
aI5
aI5
aI9
aI3
aI-7
aI10
aI0
aI4
aI-8
aI-10
aI4
aI9
aI-4
aI-6
aI-1
aI3
aI10
aI-4
aI0
aI6
aI-3
aI7
aI-9
aI-1
aI-10
aI-1
aI-2
aI2
aI9
aI7
aI-3
aI2
aI-3
aI5
aI-4
aI9
aI-7
aI-4
aI6
aI6
aI7
aI-3
aI9
aI-8
aI9
aI5
aI10
aI1
aI-7
aI-3
aI-6
aI-7
aI-4
aI-8
aI-10
aI9
aI4
aI10
aI2
aI-2
aI4
aI-6
aI1
aI-4
aI5
aI1
aI-4
aI-3
aI5
aI6
aI5
aI9
aI-10
aI7
aI0
aI-2
aI10
aI2
aI-1
aI9
aI9
aI-9
aI7
aI6
aI3
aI-2
aI-6
aI-9
aI-5
aI0
aI-8
aI-3
aI-2
aI-5
aI0
aI-5
aI10
aI8
aI-3
aI4
aI10
aI8
aI-5
aI1
aI3
aI-7
aI5
aI10
aI6
aI-8
aI-4
aI-3
aI-6
aI-8
aI6
aI-6
aI2
aI-3
aI5
aI6
aI9
aI2
aI-7
aI-10
aI-7
aI10
aI1
aI9
aI5
aI-2
aI-4
aI-9
aI9
aI-4
aI6
aI2
aI-9
aI-9
aI-6
aI-7
aI-3
aI-5
aI2
aI-9
aI-8
aI-6
aI7
aI10
aI-8
aI6
aI1
aI-7
aI7
aI9
aI7
aI-10
aI1
aI-5
aI5
aI1
aI-2
aI6
aI-5
aI6
aI4
aI-4
aI-10
aI-3
aI-4
aI-3
aI3
aI5
aI-3
aI6
aI-9
aI8
aI1
aI3
aI6
aI-3
aI1
aI4
aI-6
aI4
aI2
aI3
aI4
aI-10
aI3
aI1
aI-4
aI-3
aI7
aI2
aI-10
aI10
aI1
aI-10
aI9
aI7
aI-7
aI-10
aI-3
aI-9
aI8
aI1
aI7
aI9
aI-10
aI3
aI-4
aI4
aI-3
aI2
aI-3
aI-6
aI-6
aI8
aI7
aI2
aI-2
aI-6
aI-9
aI-6
aI3
aI4
aI1
aI8
aI-1
aI10
aI-6
aI0
aI2
aI-1
aI0
aI4
aI-8
aI-7
aI-8
aI0
aI4
aI9
aI-6
aI2
aI3
aI-6
aI3
aI-7
aI5
aI7
aI-5
aI0
aI-10
aI9
aI-10
aI0
aI3
aI-7
aI4
aI-8
aI1
aI-3
aI-2
aI-8
aI9
aI8
aI-9
aI6
aI-2
aI0
aI-8
aI-8
aI-6
aI-6
aI-5
aI4
aI0
aI-8
aI1
aI8
aI9
aI-8
aI-7
aI8
aI6
aI1
aI-10
aI-10
aI9
aI-7
aI-4
aI5
aI10
aI8
aI7
aI4
aI10
aI0
aI-2
aI6
aI7
aI0
aI-8
aI5
aI5
aI0
aI-9
aI1
aI-1
aI-4
aI2
aI10
aI-3
aI-1
aI8
aI5
aI1
aI6
aI6
aI-6
aI7
aI-5
aI4
aI-3
aI0
aI4
aI-5
aI0
aI-7
aI-9
aI-2
aI7
aI7
aI-5
aI4
aI-6
aI-10
aI7
aI-4
aI5
aI-6
aI10
aI-7
aI-3
aI5
aI4
aI8
aI1
aI-6
aI0
aI4
aI-10
aI-3
aI1
aI-8
aI-9
aI4
aI-4
aI9
aI-9
aI-3
aI6
aI0
aI-7
aI-5
aI-9
aI10
aI-10
aI1
aI6
aI4
aI0
aI-10
aI-9
aI3
aI10
aI0
aI-4
aI-5
aI-10
aI2
aI-8
aI-9
aI-6
aI-10
aI6
aI-8
aI-6
aI-8
aI-4
aI-8
aI-4
aI9
aI-8
aI-9
aI0
aI-8
aI7
aI-2
aI-5
aI3
aI5
aI9
aI-10
aI-8
aI-7
aI-2
aI10
aI2
aI7
aI2
aI4
aI-7
aI0
aI3
aI8
aI8
aI-4
aI-5
aI-7
aI2
aI1
aI-4
aI10
aI2
aI2
aI1
aI0
aI-8
aI2
aI7
aI-10
aI-4
aI-5
aI1
aI7
aI-3
aI3
aI10
aI-3
aI8
aI-8
aI-2
aI-3
aI-5
aI6
aI-9
aI-9
aI-10
aI10
aI6
aI1
aI-3
aI-3
aI9
aI-2
aI-5
aI10
aI-3
aI-3
aI9
aI3
aI4
aI4
aI1
aI6
aI4
aI10
aI9
aI-8
aI-4
aI1
aI-7
aI-8
aI4
aI8
aI-2
aI-7
aI3
aI-9
aI2
aI-4
aI9
aI-9
aI-8
aI2
aI2
aI-8
aI10
aI3
aI-5
aI5
aI-1
aI-10
aI-3
aI10
aI-10
aI-10
aI-10
aI-5
aI1
aI9
aI1
aI1
aI-4
aI0
aI-3
aI9
aI-5
aI-2
aI6
aI8
aI-10
aI5
aI-9
aI-3
aI-4
aI-4
aI5
aI1
aI8
aI8
aI-10
aI1
aI9
aI-6
aI1
aI6
aI-4
aI5
aI1
aI-2
aI-7
aI-5
aI9
aI-7
aI-3
aI3
aI-2
aI-2
aI-5
aI9
aI-6
aI-5
aI9
aI5
aI10
aI-9
aI0
aI6
aI-9
aI-9
aI-6
aI10
aI6
aI-3
aI0
aI0
aI-10
aI3
aI6
aI-7
aI-3
aI6
aI-9
aI6
aI-3
aI-4
aI-6
aI-5
aI-1
aI-1
aI3
aI4
aI8
aI-7
aI3
aI-1
aI5
aI7
aI-10
aI5
aI4
aI1
aI-6
aI4
aI10
aI-10
aI5
aI10
aI-3
aI-8
aI9
aI-3
aI8
aI-9
aI6
aI-5
aI1
aI-7
aI-8
aI2
aI7
aI5
aI9
aI-7
aI-1
aI-4
aI10
aI7
aI3
aI-7
aI-2
aI-4
aI-5
aI7
aI0
aI-8
aI-2
aI-7
aI2
aI6
aI9
aI3
aI4
aI-1
aI2
aI2
aI0
aI-6
aI9
aI-4
aI8
aI3
aI0
aI2
aI2
aI-10
aI5
aI3
aI-4
aI-3
aI1
aI5
aI-3
aI-4
aI3
aI8
aI0
aI3
aI-4
aI0
aI9
aI7
aI-6
aI-10
aI-8
aI7
aI-7
aI4
aI1
aI4
aI-2
aI-10
aI-8
aI0
aI-2
aI4
aI7
aI-6
aI2
aI5
aI-5
aI-6
aI9
aI3
aI-10
aI2
aI-3
aI-7
aI-10
aI10
aI-6
aI-10
aI-1
aI-1
aI-10
aI-5
aI1
aI4
aI0
aI4
aI-7
aI6
aI-10
aI5
aI5
aI3
aI-6
aI6
aI4
aI8
aI1
aI1
aI-4
aI-10
aI4
aI10
aI-10
aI-9
aI9
aI10
aI5
aI10
aI-10
aI-3
aI-8
aI-3
aI-1
aI10
aI-2
aI-1
aI-4
aI-7
aI9
aI6
aI-3
aI7
aI-3
aI-7
aI3
aI8
aI-4
aI1
aI2
aI-8
aI-7
aI-1
aI-6
aI5
aI-3
aI6
aI-5
aI6
aI1
aI3
aI-3
aI3
aI-7
aI1
aI2
aI-1
aI9
aI-10
aI7
aI-3
aI-4
aI2
aI-3
aI10
aI6
aI4
aI9
aI7
aI-5
aI-6
aI-10
aI-5
aI10
aI-1
aI-8
aI8
aI-10
aI-6
aI-9
aI-5
aI-4
aI8
aI-2
aI-10
aI-2
aI2
aI7
aI8
aI-10
aI-8
aI-9
aI-9
aI-2
aI4
aI8
aI-7
aI4
aI-9
aI-10
aI-10
aI1
aI-9
aI9
aI9
aI-1
aI10
aI6
aI0
aI6
aI2
aI-1
aI-3
aI2
aI-7
aI3
aI3
aI8
aI6
aI-7
aI-3
aI-7
aI-10
aI0
aI-9
aI4
aI0
aI7
aI6
aI-6
aI8
aI7
aI2
aI9
aI3
aI2
aI10
aI-3
aI-2
aI7
aI-6
aI-5
aI-8
aI5
aI-1
aI9
aI6
aI8
aI4
aI6
aI-7
aI-6
aI-9
aI5
aI-9
aI-9
aI-1
aI0
aI1
aI5
aI2
aI-7
aI-2
aI-10
aI-10
aI-8
aI-9
aI7
aI9
aI-5
aI-3
aI6
aI-4
aI-9
aI10
aI3
aI5
aI7
aI-9
aI0
aI1
aI8
aI10
aI4
aI5
aI-10
aI7
aI7
aI-9
aI-1
aI7
aI7
aI9
aI3
aI7
aI3
aI-7
aI3
aI-8
aI2
aI2
aI7
aI0
aI9
aI8
aI-9
aI-6
aI10
aI-9
aI-3
aI0
aI-8
aI8
aI-7
aI-7
aI10
aI-1
aI8
aI-8
aI-6
aI-4
aI3
aI-6
aI-9
aI-2
aI-10
aI6
aI-5
aI-5
aI-5
aI-10
aI6
aI10
aI6
aI9
aI1
aI-9
aI8
aI8
aI5
aI-7
aI-8
aI3
aI3
aI-7
aI0
aI-6
aI3
aI6
aI-6
aI-4
aI7
aI6
aI7
aI-10
aI-1
aI-2
aI5
aI3
aI9
aI-6
aI2
aI8
aI-6
aI-6
aI8
aI10
aI-5
aI2
aI3
aI1
aI7
aI2
aI-7
aI5
aI5
aI2
aI0
aI9
aI7
aI5
aI0
aI2
aI3
aI-9
aI-1
aI5
aI5
aI6
aI-9
aI10
aI9
aI-10
aI-9
aI6
aI-4
aI-3
aI-1
aI3
aI-10
aI0
aI2
aI0
aI-5
aI-10
aI10
aI10
aI10
aI5
aI-10
aI1
aI4
aI1
aI-4
aI8
aI-4
aI-8
aI3
aI-7
aI-5
aI10
aI-4
aI-2
aI3
aI4
aI-8
aI6
aI8
aI1
aI-2
aI2
aI-9
aI6
aI-9
aI5
aI10
aI8
aI5
aI7
aI-3
aI6
aI-4
aI-2
aI-8
aI3
aI2
aI2
aI4
aI-10
aI-7
aI10
aI-7
aI-9
aI7
aI-10
aI8
aI6
aI5
aI-5
aI0
aI4
aI6
aI7
aI5
aI1
aI-7
aI10
aI-8
aI1
aI-10
aI-3
aI-7
aI-5
aI2
aI0
aI1
aI8
aI9
aI10
aI-3
aI-3
aI7
aI7
aI9
aI-3
aI-2
aI-5
aI6
aI10
aI-1
aI-3
aI-9
aI3
aI-10
aI2
aI9
aI4
aI0
aI-2
aI8
aI8
aI-5
aI-1
aI-2
aI3
aI-8
aI6
aI-4
aI-3
aI2
aI4
aI8
aI-10
aI9
aI-5
aI2
aI1
aI-1
aI9
aI-2
aI3
aI-4
aI-4
aI3
aI2
aI-2
aI-3
aI9
aI3
aI-9
aI-6
aI6
aI5
aI-4
aI9
aI4
aI-4
aI4
aI5
aI-5
aI-8
aI4
aI-9
aI-5
aI4
aI9
aI-7
aI5
aI-6
aI7
aI4
aI0
aI1
aI0
aI4
aI9
aI-9
aI6
aI2
aI4
aI5
aI-1
aI-8
aI9
aI-6
aI-9
aI-2
aI-10
aI-2
aI-6
aI5
aI-5
aI-9
aI3
aI2
aI4
aI7
aI-10
aI-1
aI-5
aI7
aI6
aI-4
aI-9
aI-2
aI-6
aI8
aI9
aI8
aI1
aI0
aI0
aI10
aI5
aI-9
aI7
aI-10
aI9
aI3
aI-2
aI6
aI9
aI-3
aI7
aI7
aI-9
aI-3
aI-9
aI-10
aI8
aI-9
aI8
aI7
aI5
aI7
aI-1
aI10
aI8
aI-7
aI7
aI-2
aI-8
aI9
aI9
aI-6
aI8
aI-1
aI-5
aI0
aI2
aI5
aI0
aI1
aI1
aI1
aI7
aI-1
aI9
aI-1
aI-10
aI-1
aI-9
aI4
aI-10
aI-2
aI5
aI-3
aI-7
aI-5
aI4
aI-2
aI0
aI7
aI5
aI4
aI-2
aI-6
aI-9
aI-6
aI0
aI2
aI3
aI6
aI7
aI10
aI-5
aI7
aI-6
aI-6
aI9
aI9
aI2
aI7
aI-7
aI4
aI-9
aI-2
aI1
aI5
aI7
aI-10
aI10
aI8
aI1
aI1
aI8
aI-8
aI-5
aI-7
aI0
aI2
aI-4
aI8
aI-8
aI-9
aI0
aI2
aI6
aI-1
aI-2
aI0
aI-5
aI-6
aI1
aI10
aI-8
aI-7
aI1
aI-5
aI6
aI-5
aI-5
aI2
aI1
aI8
aI-10
aI10
aI10
aI9
aI-4
aI-5
aI-10
aI7
aI-5
aI3
aI9
aI2
aI-10
aI-7
aI-10
aI0
aI0
aI-7
aI6
aI-9
aI-2
aI-7
aI-10
aI6
aI-7
aI-5
aI-9
aI-1
aI4
aI1
aI-4
aI-10
aI9
aI10
aI-1
aI1
aI9
aI10
aI5
aI7
aI-10
aI8
aI-1
aI3
aI-3
aI6
aI-5
aI2
aI4
aI6
aI10
aI-2
aI-4
aI-8
aI-8
aI-4
aI4
aI0
aI10
aI3
aI-10
aI-4
aI0
aI-8
aI-6
aI-9
aI-7
aI10
aI-2
aI-1
aI2
aI8
aI4
aI1
aI-7
aI-10
aI-2
aI-9
aI10
aI-2
aI5
aI-10
aI-3
aI-5
aI-3
aI0
aI0
aI-10
aI1
aI7
aI2
aI2
aI-10
aI-4
aI-5
aI-6
aI-3
aI6
aI9
aI-9
aI8
aI3
aI1
aI6
aI4
aI5
aI-1
aI-3
aI7
aI4
aI-6
aI4
aI8
aI1
aI1
aI-3
aI-2
aI8
aI-2
aI0
aI-5
aI-1
aI-1
aI-1
aI-3
aI8
aI0
aI-2
aI0
aI-3
aI8
aI-1
aI-5
aI-2
aI2
aI-3
aI-10
aI-7
aI-6
aI-3
aI-3
aI-5
aI-3
aI10
aI2
aI-1
aI-9
aI10
aI1
aI-7
aI5
aI-4
aI-8
aI-10
aI2
aI-9
aI-6
aI2
aI-5
aI-9
aI-10
aI3
aI-4
aI10
aI3
aI6
aI9
aI-4
aI3
aI-5
aI-5
aI-9
aI-2
aI-7
aI-6
aI6
aI5
aI9
aI2
aI2
aI10
aI-9
aI-10
aI-2
aI0
aI6
aI-3
aI-7
aI5
aI-6
aI-9
aI-7
aI5
aI8
aI10
aI-7
aI-6
aI7
aI2
aI-8
aI-6
aI-9
aI-10
aI-8
aI5
aI-5
aI2
aI5
aI1
aI-5
aI9
aI-9
aI6
aI-8
aI-3
aI3
aI-7
aI-9
aI3
aI0
aI0
aI8
aI3
aI-10
aI-5
aI6
aI9
aI3
aI2
aI6
aI2
aI-9
aI-1
aI-3
aI-6
aI0
aI3
aI-2
aI-4
aI-4
aI1
aI2
aI8
aI10
aI9
aI10
aI1
aI-5
aI-2
aI8
aI-10
aI10
aI4
aI-3
aI5
aI-4
aI1
aI-4
aI4
aI-10
aI-6
aI2
aI-4
aI-7
aI-6
aI-6
aI3
a.